


ARM Macro Assembler    Page 1 


    1 00000000                 AREA             project, CODE, READONLY
    2 00000000                 ENTRY
    3 00000000         
    4 00000000         Start
    5 00000000 E59F03A8        LDR              r0, =Matrix_data ; load address
                                                             of  Matrix_1 data
    6 00000004 E59FB3A8        LDR              r11, =Result_data ; load addres
                                                            s of Result_data
    7 00000008 E59BB000        ldr              r11, [r11]  ; loading address
    8 0000000C E59FD3A4        LDR              r13, =0x20000000 ; stack pointe
                                                            r initialize
    9 00000010         
   10 00000010 E2801EE1        ADD              r1, r0, #3600 ; load address of
                                                              Matrix_2 data 
   11 00000014 E3A04000        MOV              r4, #0      ; M1_row_update loo
                                                            p count
   12 00000018         M1_row_update                        ; Matrix_1 row chan
                                                            ge
   13 00000018         
   14 00000018 E2844001        ADD              r4, r4, #1  ; loop count++
   15 0000001C         
   16 0000001C E354001F        CMP              r4, #31     ; check whether loo
                                                            p acted 30 times
   17 00000020 0A00009F        BEQ              finish      ; 
   18 00000024         
   19 00000024 E1A02000        MOV              r2, r0      ; update M1_row 
   20 00000028 E3A07000        MOV              r7, #0      ; M2_col_update loo
                                                            p count  
   21 0000002C         
   22 0000002C         M2_col_update                        ; matrix_1 row same
                                                            , matrix_2 column u
                                                            pdate
   23 0000002C E2877001        ADD              r7, r7, #1  ; loop count++;
   24 00000030 E357001F        CMP              r7, #31     ; check loop 30 tim
                                                            es
   25 00000034 02800078        ADDEQ            r0, r0, #120 ; update M1_row
   26 00000038 02411078        SUBEQ            r1, r1, #120 ; initialize M2_co
                                                            lumn
   27 0000003C         
   28 0000003C 0AFFFFF5        BEQ              M1_row_update ; if loop 30 time
                                                            s, branch to M1_row
                                                            _change
   29 00000040         
   30 00000040 E1A06001        MOV              r6, r1      ; update M2_column
   31 00000044 E3A0A000        MOV              r10, #0     ; Execution loop co
                                                            unt 
   32 00000048 E3A0C000        MOV              r12, #0     ; Update floating a
                                                            ddition result as 0
                                                             (new calculation) 
                                                            
   33 0000004C         
   34 0000004C         Execution                            ;Executing state
   35 0000004C E28AA001        ADD              r10, r10, #1 ; loop_count++;
   36 00000050 E35A001F        CMP              r10, #31    ; check loop 30 tim
                                                            es
   37 00000054 048BC004        STREQ            r12, [r11], #4 ; store result t
                                                            o r11 and update r1
                                                            1 as r11+4
   38 00000058 02422078        SUBEQ            r2, r2, #120 ; initialize r2



ARM Macro Assembler    Page 2 


   39 0000005C 02811004        ADDEQ            r1, r1, #4  ; update M2_column 
                                                            
   40 00000060 0AFFFFF1        BEQ              M2_col_update ; if loop 30 time
                                                            s, branch to M2_col
                                                            _update 
   41 00000064         
   42 00000064 E4928004        LDR              r8, [r2], #4 ; matrix_1 column 
                                                            update
   43 00000068 E4969078        LDR              r9, [r6], #120 ; matrix_2 row u
                                                            pdate   
   44 0000006C         
   45 0000006C         ;;checking Nan exception
   46 0000006C E3C83102        AND              r3, r8, #0x7FFFFFFF ; Don't car
                                                            e nan's sign bit, j
                                                            ust check exponent 
                                                            and mantissa 
   47 00000070 E59F5344        LDR              r5,=0x7F800000 ; nan will be gr
                                                            eater than 0x7F8000
                                                            00
   48 00000074 E1530005        CMP              r3, r5      ; if r8 is nan, r3 
                                                            will be greater tha
                                                            n 0x7F000000
   49 00000078 C48B8004        STRGT            r8, [r11], #4 ; if r8 is nan, s
                                                            ave r8 to r11 direc
                                                            tly
   50 0000007C C1A02000        MOVGT            r2, r0      ; initialize r2 as 
                                                            r0
   51 00000080 C2811004        ADDGT            r1, r1, #4  ; update M2_column
   52 00000084 CAFFFFE8        BGT              M2_col_update ; branch to M2_co
                                                            l_update
   53 00000088         
   54 00000088         
   55 00000088         
   56 00000088 E3C93102        AND              r3, r9, #0x7FFFFFFF ;  Don't ca
                                                            re nan's sign bit, 
                                                            just check exponent
                                                             and mantissa   
   57 0000008C E1530005        CMP              r3, r5      ; if r9 is nan, r3 
                                                            will be greater tha
                                                            n 0x7F800000
   58 00000090 C48B9004        STRGT            r9, [r11], #4 ; if r9 is nan, s
                                                            ave r9 to r11 direc
                                                            tly
   59 00000094 C1A02000        MOVGT            r2, r0      ; initialize r2 as 
                                                            r0
   60 00000098 C2811004        ADDGT            r1, r1, #4  ; update M2_column
   61 0000009C CAFFFFE2        BGT              M2_col_update ; branch to M2_co
                                                            l_update
   62 000000A0         
   63 000000A0         
   64 000000A0         ;;check 0 exception
   65 000000A0 E1A03088        MOV              r3, r8, lsl #1 ; checking r8 ex
                                                            ponent and mantissa
                                                            
   66 000000A4 E3530000        CMP              r3, #0      ; If r8 is zero, r3
                                                             will be 0
   67 000000A8 0AFFFFE7        BEQ              Execution   ; If r3==0, branch 
                                                            to Execution
   68 000000AC         



ARM Macro Assembler    Page 3 


   69 000000AC E1A03089        MOV              r3, r9, lsl #1 ; checking r9 ex
                                                            ponent and mantissa
                                                             
   70 000000B0 E3530000        CMP              r3, #0      ; If r9 is zero, r3
                                                             will be 0
   71 000000B4 0AFFFFE4        BEQ              Execution   ; If r3==0, branch 
                                                            to Execution
   72 000000B8         
   73 000000B8         ;; check inf exception 
   74 000000B8 E1A03088        MOV              r3, r8, lsl #1 ; checking r8 ex
                                                            ponent
   75 000000BC E35304FF        CMP              r3, #0xFF000000 ; If r8 is infi
                                                            nite, r3 will be 0x
                                                            FF000000
   76 000000C0 0A000005        BEQ              Infinite_store ; If r8==0xFF000
                                                            000, branch to Infi
                                                            nite_store
   77 000000C4         
   78 000000C4 E1A03089        MOV              r3, r9, lsl #1 ; checking r9 ex
                                                            ponent
   79 000000C8 E35304FF        CMP              r3, #0xFF000000 ; If r9 is infi
                                                            nite, r3 will be 0x
                                                            FF000000
   80 000000CC 0A000002        BEQ              Infinite_store ; If r9==0xFF000
                                                            000, branch to Infi
                                                            nite_store
   81 000000D0         
   82 000000D0 EB000032        BL               Multiply    ; branch to Multipl
                                                            y (return value wil
                                                            l in r12) 
   83 000000D4 E83D0FFF        LDMFA            sp!, {r0-r11} ; multiple load f
                                                            rom stack 
   84 000000D8         
   85 000000D8 EAFFFFDB        B                Execution   ; branch to Executi
                                                            on 
   86 000000DC         
   87 000000DC         Infinite_store                       ; Storing registers
                                                             to stack before In
                                                            finite_after_store
   88 000000DC E9AD03FF        STMFA            sp!, {r0-r9} ; multiple store t
                                                            o stack 
   89 000000E0 E3A07000        MOV              r7, #0      ; decision count re
                                                            set
   90 000000E4         Infinite_after_store                 ; Deciding result v
                                                            alue based on r7(De
                                                            cision count)
   91 000000E4         
   92 000000E4 E2084102        AND              r4, r8, #0x80000000 
                                                            ; get sign bit
   93 000000E8 E2095102        AND              r5, r9, #0x80000000 
                                                            ; get sign bit 
   94 000000EC         
   95 000000EC E0248005        EOR              r8, r4, r5  ; result sign bit
   96 000000F0 E3580000        CMP              r8, #0      ; if r8==0 +inf, el
                                                            se -inf
   97 000000F4 02877001        ADDEQ            r7, r7, #1  ; if +inf, r7++
   98 000000F8 12477001        SUBNE            r7, r7, #1  ; if -inf, r7-- 
   99 000000FC         
  100 000000FC E3570000        CMP              r7, #0      ;decide result's va



ARM Macro Assembler    Page 4 


                                                            lue
  101 00000100 C59FC2B4        LDRGT            r12, =0x7F800000 ;if r7>0, +inf
                                                            
  102 00000104 03A0C000        MOVEQ            r12, #0     ;if r7==0, 0
  103 00000108 B59FC2B0        LDRLT            r12, =0xFF800000 
                                                            ; if r7<0, -inf
  104 0000010C         
  105 0000010C         Infinite_addr_inc                    ; Finding infinite 
                                                            increasing Matrix a
                                                            ddress
  106 0000010C         
  107 0000010C E28AA001        ADD              r10, r10, #1 ; loop count++
  108 00000110 E35A001F        CMP              r10, #31    ; Checking looped 3
                                                            0 times
  109 00000114 048BC004        STREQ            r12, [r11], #4 ; If looped 30 t
                                                            imes, put result to
                                                             r11
  110 00000118 083D03FF        LDMEQFA          sp!, {r0-r9} ; multiple load fr
                                                            om stack
  111 0000011C 01A02000        MOVEQ            r2, r0      ; matrix_1 column i
                                                            nitialize
  112 00000120 02811004        ADDEQ            r1, r1, #4  ; update M2_column 
                                                            
  113 00000124 0AFFFFC0        BEQ              M2_col_update ; if loop 30 time
                                                            s, branch to M2_col
                                                            _update 
  114 00000128         
  115 00000128 B4928004        LDRLT            r8, [r2], #4 ; matrix_1 column 
                                                            update
  116 0000012C B4969078        LDRLT            r9, [r6], #120 ; matrix_2 row u
                                                            pdate 
  117 00000130         
  118 00000130         ;;checking Nan exception
  119 00000130 E3C83102        AND              r3, r8, #0x7FFFFFFF ;Don't care
                                                             nan's sign bit, ju
                                                            st check exponent a
                                                            nd mantissa 
  120 00000134 E59F5280        LDR              r5,=0x7F800000 ; nan will be gr
                                                            eater than 0x7F8000
                                                            00
  121 00000138 E1530005        CMP              r3, r5      ; if r8 is nan, r3 
                                                            will be greater tha
                                                            n 0xFF000000 
  122 0000013C C48B8004        STRGT            r8, [r11], #4 ; if r8 is nan, s
                                                            ave r8 to r11 direc
                                                            tly
  123 00000140 C83D03FF        LDMGTFA          sp!, {r0-r9} ; Multiple load fr
                                                            om stack
  124 00000144 C1A02000        MOVGT            r2, r0      ; initialize r2 as 
                                                            r0
  125 00000148 C2811004        ADDGT            r1, r1, #4  ; update M2_column
  126 0000014C CAFFFFB6        BGT              M2_col_update ; branch to M2_co
                                                            l_update
  127 00000150         
  128 00000150 E3C93102        AND              r3, r9, #0x7FFFFFFF ;Don't care
                                                             nan's sign bit, ju
                                                            st check exponent a
                                                            nd mantissa 
  129 00000154 E1530005        CMP              r3, r5      ; if r9 is nan, r3 



ARM Macro Assembler    Page 5 


                                                            will be greater tha
                                                            n 0xFF000000 
  130 00000158 C48B9004        STRGT            r9, [r11], #4 ; if r9 is nan, s
                                                            ave r9 to r11 direc
                                                            tly
  131 0000015C C83D03FF        LDMGTFA          sp!, {r0-r9} ; Multiple load fr
                                                            om stack
  132 00000160 C1A02000        MOVGT            r2, r0      ; initialize r2 as 
                                                            r0
  133 00000164 C2811004        ADDGT            r1, r1, #4  ;  update M2_column
                                                            
  134 00000168 CAFFFFAF        BGT              M2_col_update ; branch to M2_co
                                                            l_update 
  135 0000016C         
  136 0000016C         ;;check 0 exception
  137 0000016C E1A03088        MOV              r3, r8, lsl #1 ;checking r8 exp
                                                            onent and mantissa
  138 00000170 E3530000        CMP              r3, #0      ; If r8 is zero, r3
                                                             will be 0
  139 00000174 0AFFFFE4        BEQ              Infinite_addr_inc ; If r3==0, b
                                                            ranch to Infinite_a
                                                            ddr_inc
  140 00000178         
  141 00000178 E1A03089        MOV              r3, r9, lsl #1 ;checking r9 exp
                                                            onent and mantissa
  142 0000017C E3530000        CMP              r3, #0      ; If r9 is zero, r3
                                                             will be 0
  143 00000180 0AFFFFE1        BEQ              Infinite_addr_inc ; If r3==0, b
                                                            ranch to Infinite_a
                                                            ddr_inc  
  144 00000184         
  145 00000184         ;; check +inf exception 
  146 00000184 E1A03088        MOV              r3, r8, lsl #1 ; checking r8 ex
                                                            ponent
  147 00000188 E35304FF        CMP              r3, #0xFF000000 ; If r8 is infi
                                                            nite, r3 will be 0x
                                                            FF000000
  148 0000018C 0AFFFFD4        BEQ              Infinite_after_store ; If r8==0
                                                            xFF000000, branch t
                                                            o Infinite_after_st
                                                            ore
  149 00000190         
  150 00000190 E1A03089        MOV              r3, r9, lsl #1 ; checking r9 ex
                                                            ponent
  151 00000194 E35304FF        CMP              r3, #0xFF000000 ; If r9 is infi
                                                            nite, r3 will be 0x
                                                            FF000000
  152 00000198 0AFFFFD1        BEQ              Infinite_after_store ; If r9==0
                                                            xFF000000, branch t
                                                            o Infinite_after_st
                                                            ore
  153 0000019C         
  154 0000019C EAFFFFDA        B                Infinite_addr_inc ; If there is
                                                             no exception, bran
                                                            ch to Infinite_addr
                                                            _inc
  155 000001A0         
  156 000001A0         Multiply                             ;; Setting Multipli
                                                            cation



ARM Macro Assembler    Page 6 


  157 000001A0 E9AD0FFF        STMFA            sp!, {r0-r11} ; multiple store 
                                                            to stack
  158 000001A4         
  159 000001A4 E1A00008        MOV              r0, r8      ; put matrix_1 data
                                                            
  160 000001A8 E1A01009        MOV              r1, r9      ; put matrix_2 data
                                                             
  161 000001AC         
  162 000001AC E2002102        AND              r2, r0, #0x80000000 
                                                            ; get sign bit
  163 000001B0 E2013102        AND              r3, r1, #0x80000000 
                                                            ; get sign bit 
  164 000001B4         
  165 000001B4 E0228003        EOR              r8, r2, r3  ; result sign bit  
                                                             
  166 000001B8         
  167 000001B8 E1A00080        MOV              r0, r0, lsl #1 ;shift left r0 1
                                                             times
  168 000001BC E1A01081        MOV              r1, r1, lsl #1 ;shift left r1 1
                                                             times
  169 000001C0         
  170 000001C0 E1A04C20        MOV              r4, r0, lsr #24 ;shift right r0
                                                             24 times to get ex
                                                            ponent
  171 000001C4 E1A05C21        MOV              r5, r1, lsr #24 ;shift right r1
                                                             24 times to get ex
                                                            ponent  
  172 000001C8         
  173 000001C8 E0844005        ADD              r4, r4, r5  ; exponent addition
                                                            
  174 000001CC E244407F        SUB              r4, r4, #127 ; exponent complem
                                                            ent 
  175 000001D0         
  176 000001D0 E1A00400        MOV              r0, r0, lsl #8 ;shift left r0 8
                                                             times
  177 000001D4 E1A01401        MOV              r1, r1, lsl #8 ;shift left r1 8
                                                             times
  178 000001D8         
  179 000001D8 E1A064A0        MOV              r6, r0, lsr #9 ;shift right r0 
                                                            9 times to get mant
                                                            issa(multiplicand) 
                                                            
  180 000001DC E1A074A1        MOV              r7, r1, lsr #9 ;shift right r1 
                                                            9 times to get mant
                                                            issa(multiplier)  
  181 000001E0         
  182 000001E0 E2866502        ADD              r6, r6, #0x800000 ;  add 0x8000
                                                            00 to r0's mantissa
                                                            
  183 000001E4 E2877502        ADD              r7, r7, #0x800000 ;  add 0x8000
                                                            00 to r1's mantissa
                                                              
  184 000001E8         
  185 000001E8 E3A09000        MOV              r9, #0      ; It will be U 
  186 000001EC         
  187 000001EC E1A0A087        MOV              r10, r7, lsl #1 ; It will be X~
                                                            X[0] 
  188 000001F0 E3A00000        MOV              r0, #0      ; Radix-4 state cyc
                                                            le



ARM Macro Assembler    Page 7 


  189 000001F4 E3A01007        LDR              r1, =0x00000007 ; Search which 
                                                            pattern 
  190 000001F8         booth_op                             ;; booth operation 
                                                            
  191 000001F8 E001200A        AND              r2, r1, r10 ; Find pattern of X
                                                            i+1, Xi, Xi-1 
  192 000001FC         
  193 000001FC E3520000        CMP              r2, #0      ; Shift only
  194 00000200 0A000013        BEQ              booth_shift ; branch to shift o
                                                            peration 
  195 00000204         
  196 00000204 E3520001        CMP              r2, #1      ; +1X
  197 00000208 00899006        ADDEQ            r9, r9, r6  ; +multiplicand 
  198 0000020C 0A000010        BEQ              booth_shift ; branch to shift o
                                                            peration 
  199 00000210         
  200 00000210 E3520002        CMP              r2, #2      ; +1X  
  201 00000214 00899006        ADDEQ            r9, r9, r6  ; +multiplicand
  202 00000218 0A00000D        BEQ              booth_shift ; branch to shift o
                                                            peration 
  203 0000021C         
  204 0000021C E3520003        CMP              r2, #3      ; +2X
  205 00000220 00899086        ADDEQ            r9, r9, r6, lsl #1 ; +2 * multi
                                                            plicand 
  206 00000224 0A00000A        BEQ              booth_shift ; branch to shift o
                                                            peration 
  207 00000228         
  208 00000228 E3520004        CMP              r2, #4      ; -2X
  209 0000022C 00499086        SUBEQ            r9, r9, r6, lsl #1 ; -2 * multi
                                                            plicand 
  210 00000230 0A000007        BEQ              booth_shift ; branch to shift o
                                                            peration 
  211 00000234         
  212 00000234 E3520005        CMP              r2, #5      ; -1X
  213 00000238 00499006        SUBEQ            r9, r9, r6  ; -multiplicand
  214 0000023C 0A000004        BEQ              booth_shift ; branch to shift o
                                                            peration 
  215 00000240         
  216 00000240 E3520006        CMP              r2, #6      ; -1X
  217 00000244 00499006        SUBEQ            r9, r9, r6  ; -multiplicand
  218 00000248 0A000001        BEQ              booth_shift ; branch to shift o
                                                            peration 
  219 0000024C         
  220 0000024C E3520007        CMP              r2, #7      ; shift only 
  221 00000250 0AFFFFFF        BEQ              booth_shift ; branch to shift o
                                                            peration 
  222 00000254         booth_shift                          ;; shifting U, X
  223 00000254 E2800001        ADD              r0, r0, #1  ; cycle count++;
  224 00000258         
  225 00000258 E1A09149        MOV              r9, r9, asr #2 ; shift twice
  226 0000025C         
  227 0000025C         ;; Xi shift
  228 0000025C E20A2006        AND              r2, r10, #6 ; check what's the 
                                                            value of Xi+1, Xi 
  229 00000260 E1A02B02        MOV              r2, r2, lsl #22 
                                                            ; update sign bits
  230 00000264         
  231 00000264 E082A12A        ADD              r10, r2, r10, lsr #2 ; rotate r
                                                            ight for shifting t



ARM Macro Assembler    Page 8 


                                                            wice
  232 00000268         
  233 00000268 E350000B        CMP              r0, #11     ; check cycled full
                                                            
  234 0000026C 03A05002        MOVEQ            r5, #2      ; get the bit which
                                                             will be vanished b
                                                            y next shifting. 
  235 00000270 00095005        ANDEQ            r5, r9, r5  ; save it to r5  
  236 00000274 DAFFFFDF        BLE              booth_op    ; if not full, bran
                                                            ch to booth_op agai
                                                            n
  237 00000278         
  238 00000278 C0899006        ADDGT            r9, r9, r6  ; add multiplicand 
                                                            to r9
  239 0000027C E3A03502        LDR              r3,=0x00800000 ; Load 0x0080000
                                                            0 to r3
  240 00000280 E1590003        CMP              r9, r3      ; compare Final U's
                                                             value with r3
  241 00000284 A049B003        SUBGE            r11, r9, r3 ; If r9>=0x00800000
                                                            , r11=r9-r3
  242 00000288 A2844001        ADDGE            r4, r4, #1  ; If r9>=0x00800000
                                                            , r4++ 
  243 0000028C B1A09089        MOVLT            r9, r9, lsl #1 ; If r9<0x008000
                                                            00, shift left r9 o
                                                            ne time 
  244 00000290 B0499003        SUBLT            r9, r9, r3  ; then, update r9 a
                                                            s r9-0x00800000
  245 00000294 B089B0A5        ADDLT            r11, r9, r5, lsr #1 ; Finally a
                                                            dd underflowed U's 
                                                            LSB to r9
  246 00000298         
  247 00000298 E0888B84        ADD              r8, r8, r4, lsl #23 
                                                            ; sign bit+exponent
                                                            
  248 0000029C E08BB008        ADD              r11, r11, r8 ; sign bit+exponen
                                                            t+mantissa 
  249 000002A0 EA000000        B                Floating_add ; Add result to to
                                                            tal value   
  250 000002A4         
  251 000002A4         finish
  252 000002A4 E3A0F000        MOV              pc, #0      ; if loop 30 times,
                                                             program end
  253 000002A8         
  254 000002A8         Floating_add
  255 000002A8 E1A0000B        MOV              r0, r11     ; load r11 to r0;
  256 000002AC E1A0100C        MOV              r1, r12     ; load r12 to r1 
  257 000002B0         
  258 000002B0 E1A02080        MOV              r2, r0, lsl #1
  259 000002B4         
  260 000002B4 E3520000        CMP              r2, #0      ; check if r0==0
  261 000002B8 01A0C001        MOVEQ            r12, r1     ; if r0==0, result 
                                                            is r1 
  262 000002BC 01A0F00E        MOVEQ            pc, lr      ; return
  263 000002C0         
  264 000002C0 E1A02081        MOV              r2, r1, lsl #1
  265 000002C4         
  266 000002C4 E3520000        CMP              r2, #0      ; check if r1==0
  267 000002C8 01A0C000        MOVEQ            r12, r0     ; if r1==0, result 
                                                            is r0



ARM Macro Assembler    Page 9 


  268 000002CC 01A0F00E        MOVEQ            pc, lr      ;  
  269 000002D0         
  270 000002D0 E2002102        AND              r2, r0, #0x80000000
  271 000002D4         ;MOV r2, r0, lsr # 31  ;shift right r0 31 times to get s
                       ign bit
  272 000002D4 E2013102        AND              r3, r1, #0x80000000
  273 000002D8         ;MOV r3, r1, lsr # 31  ;shift right r1 31 times to get s
                       ign bit
  274 000002D8         
  275 000002D8 E1A00080        MOV              r0, r0, lsl #1 ;shift left r0 1
                                                             times
  276 000002DC E1A01081        MOV              r1, r1, lsl #1 ;shift left r1 1
                                                             times
  277 000002E0 E1A04C20        MOV              r4, r0, lsr #24 ;shift right r0
                                                             24 times to get ex
                                                            ponent
  278 000002E4 E1A05C21        MOV              r5, r1, lsr #24 ;shift right r1
                                                             24 times to get ex
                                                            ponent
  279 000002E8         
  280 000002E8 E1A00400        MOV              r0, r0, lsl #8 ;shift left r0 8
                                                             times
  281 000002EC E1A01401        MOV              r1, r1, lsl #8 ;shift left r1 8
                                                             times
  282 000002F0 E1A064A0        MOV              r6, r0, lsr #9 ;shift right r0 
                                                            9 times to get mant
                                                            issa
  283 000002F4 E1A074A1        MOV              r7, r1, lsr #9 ;shift right r1 
                                                            9 times to get mant
                                                            issa
  284 000002F8         
  285 000002F8 E2866502        ADD              r6, r6, #0x800000 ;  add 0x8000
                                                            00 to r0's mantissa
                                                            
  286 000002FC E2877502        ADD              r7, r7, #0x800000 ;  add 0x8000
                                                            00 to r1's mantissa
                                                            
  287 00000300         
  288 00000300 E1540005        CMP              r4, r5      ; compare exponent
  289 00000304 A1A0A004        MOVGE            r10, r4     ; put greater expon
                                                            ent to r10
  290 00000308 B1A0A005        MOVLT            r10, r5     ; put greater expon
                                                            ent to r10
  291 0000030C A1A09007        MOVGE            r9, r7      ; if r4>=r5, put r7
                                                             into r9, r9 is sma
                                                            ller exponent's man
                                                            tissa
  292 00000310 B1A09006        MOVLT            r9, r6      ; if r4<r5, put r6 
                                                            into r9
  293 00000314 A0448005        SUBGE            r8, r4, r5  ; r8=shift num
  294 00000318 B0458004        SUBLT            r8, r5, r4  ; r8=shift num
  295 0000031C E1A09839        MOV              r9, r9, lsr r8 ; shift right r9
                                                             for r9(shift num) 
                                                            times
  296 00000320         
  297 00000320 E022B003        EOR              r11, r2, r3 ; exclusive or r2^r
                                                            3
  298 00000324 E35B0000        CMP              r11 , #0    ; compare r12 and 0
                                                            



ARM Macro Assembler    Page 10 


  299 00000328 0A000006        BEQ              samesign    ; if r11==0, branch
                                                             to samesign
  300 0000032C 1A00000C        BNE              difsign     ; else, branch to d
                                                            ifsign
  301 00000330         
  302 00000330         result
  303 00000330 E3590000        CMP              r9, #0      ; compare r9, 0
  304 00000334 1249C502        SUBNE            r12, r9, #0x800000 ; put r9-0x8
                                                            00000(mantissa resu
                                                            lt) to r11 if r9!=0
                                                            
  305 00000338 01A0C009        MOVEQ            r12, r9     ;  put r9 to r11 if
                                                             r9==0  
  306 0000033C E08CCB8A        ADD              r12, r12, r10, lsl#23 ; add r10
                                                            (exponent_result) a
                                                            nd r11 to r11
  307 00000340 E08CC002        ADD              r12, r12, r2 ; add r0 and r11 t
                                                            o r11 
  308 00000344         
  309 00000344 E1A0F00E        mov              pc, lr      ; return
  310 00000348         
  311 00000348         samesign
  312 00000348 E1540005        CMP              r4, r5      ; compare exponent
  313 0000034C A0899006        ADDGE            r9, r9, r6  ; if r4>=r5, add r6
                                                             to r9
  314 00000350 B0899007        ADDLT            r9, r9, r7  ; if r4<r5, add r7 
                                                            to r9
  315 00000354         
  316 00000354 E3590401        CMP              r9, #0x1000000 ; compare r9 and
                                                             0x1000000
  317 00000358 A1A090A9        MOVGE            r9, r9, lsr #1 ;if r9>0x1000000
                                                            , shift right one t
                                                            ime
  318 0000035C A28AA001        ADDGE            r10, r10, #1 ;if r9>0x1000000, 
                                                            add 1 to r10
  319 00000360 EAFFFFF2        B                result      ; return
  320 00000364         
  321 00000364         difsign
  322 00000364 E1540005        CMP              r4, r5      ; compare exponent
  323 00000368 A1A07009        MOVGE            r7, r9      ; if r4>=r5, move r
                                                            9 to r7
  324 0000036C B1A06009        MOVLT            r6, r9      ; if r4<r5, move r9
                                                             to r6
  325 00000370         
  326 00000370 E1530002        CMP              r3, r2      ; compare sign bit
  327 00000374 C0479006        SUBGT            r9, r7, r6  ; if r2>r3, r9=r7-r
                                                            6
  328 00000378 C046B007        SUBGT            r11, r6, r7 ; r12=~r9
  329 0000037C B0469007        SUBLT            r9, r6, r7  ; if r2<r3, r9=r6-r
                                                            7
  330 00000380 B047B006        SUBLT            r11, r7, r6 ; r12=~r9
  331 00000384         
  332 00000384 E3590000        CMP              r9, #0      ; check if r9 is pl
                                                            us or minus
  333 00000388 03A0A000        MOVEQ            r10, #0     ; if r9==0, exponen
                                                            t will be 0
  334 0000038C 0AFFFFE7        BEQ              result      ; if r9==0, branch 
                                                            to result
  335 00000390 C3A02000        MOVGT            r2, #0      ; if r9>0, result s



ARM Macro Assembler    Page 11 


                                                            ign will be 0
  336 00000394 B3A02102        MOVLT            r2, #0x80000000 ; if r9<0, resu
                                                            lt sign will be 1
  337 00000398 B1A0900B        MOVLT            r9, r11     ; if r9<0, mov r12 
                                                            to r9     
  338 0000039C         shift
  339 0000039C E3590502        CMP              r9, #0x800000 ; compare r9 and 
                                                            0x800000
  340 000003A0 B1A09089        MOVLT            r9, r9, lsl #1 ; if r9<0x800000
                                                            , shift left one ti
                                                            me
  341 000003A4 B24AA001        SUBLT            r10, r10, #1 ;   if r9<0x800000
                                                            , sub 1 from r10
  342 000003A8 BAFFFFFB        BLT              shift       ; if r9<0x800000, b
                                                            ranch to shift
  343 000003AC AAFFFFDF        BGE              result      ; if r9>=0x800000, 
                                                            go to result
  344 000003B0         
  345 000003B0         ;====Matrix area 
  346 000003B0 00000000 
              00000000 
              20000000 
              7F800000 
              FF800000         AREA             Matrix, DATA
  347 00000000         
  348 00000000         Matrix_data
  349 00000000 444C0000        DCD              2_01000100010011000000000000000
000
  350 00000004 43F48000        DCD              2_01000011111101001000000000000
000
  351 00000008 430E2000        DCD              2_01000011000011100010000000000
000
  352 0000000C 402D0000        DCD              2_01000000001011010000000000000
000
  353 00000010 C418C000        DCD              2_11000100000110001100000000000
000
  354 00000014 C41EC000        DCD              2_11000100000111101100000000000
000
  355 00000018 40680000        DCD              2_01000000011010000000000000000
000
  356 0000001C C39B6000        DCD              2_11000011100110110110000000000
000
  357 00000020 410A4000        DCD              2_01000001000010100100000000000
000
  358 00000024 BE8E0000        DCD              2_10111110100011100000000000000
000
  359 00000028 BF2AE000        DCD              2_10111111001010101110000000000
000
  360 0000002C C0180000        DCD              2_11000000000110000000000000000
000
  361 00000030 3F240000        DCD              2_00111111001001000000000000000
000
  362 00000034 BFA34000        DCD              2_10111111101000110100000000000
000
  363 00000038 00000000        DCD              2_00000000000000000000000000000
000
  364 0000003C 4003A000        DCD              2_01000000000000111010000000000
000
  365 00000040 FF800000        DCD              2_11111111100000000000000000000



ARM Macro Assembler    Page 12 


000
  366 00000044 C33FC000        DCD              2_11000011001111111100000000000
000
  367 00000048 3E9CE000        DCD              2_00111110100111001110000000000
000
  368 0000004C 41584000        DCD              2_01000001010110000100000000000
000
  369 00000050 BFB8C000        DCD              2_10111111101110001100000000000
000
  370 00000054 C08D6000        DCD              2_11000000100011010110000000000
000
  371 00000058 41A1A000        DCD              2_01000001101000011010000000000
000
  372 0000005C 3F366000        DCD              2_00111111001101100110000000000
000
  373 00000060 42F60000        DCD              2_01000010111101100000000000000
000
  374 00000064 C2D7A000        DCD              2_11000010110101111010000000000
000
  375 00000068 42D1E000        DCD              2_01000010110100011110000000000
000
  376 0000006C 44162000        DCD              2_01000100000101100010000000000
000
  377 00000070 41536000        DCD              2_01000001010100110110000000000
000
  378 00000074 BF24E000        DCD              2_10111111001001001110000000000
000
  379 00000078 41B70000        DCD              2_01000001101101110000000000000
000
  380 0000007C 43B96000        DCD              2_01000011101110010110000000000
000
  381 00000080 C2968000        DCD              2_11000010100101101000000000000
000
  382 00000084 41000000        DCD              2_01000001000000000000000000000
000
  383 00000088 C1EF6000        DCD              2_11000001111011110110000000000
000
  384 0000008C 3EEE2000        DCD              2_00111110111011100010000000000
000
  385 00000090 C0800000        DCD              2_11000000100000000000000000000
000
  386 00000094 C1D20000        DCD              2_11000001110100100000000000000
000
  387 00000098 C1930000        DCD              2_11000001100100110000000000000
000
  388 0000009C 40000000        DCD              2_01000000000000000000000000000
000
  389 000000A0 C2A30000        DCD              2_11000010101000110000000000000
000
  390 000000A4 40004000        DCD              2_01000000000000000100000000000
000
  391 000000A8 C4498000        DCD              2_11000100010010011000000000000
000
  392 000000AC C0238000        DCD              2_11000000001000111000000000000
000
  393 000000B0 C1BA0000        DCD              2_11000001101110100000000000000
000
  394 000000B4 C2240000        DCD              2_11000010001001000000000000000
000



ARM Macro Assembler    Page 13 


  395 000000B8 43B60000        DCD              2_01000011101101100000000000000
000
  396 000000BC C3338000        DCD              2_11000011001100111000000000000
000
  397 000000C0 C25D0000        DCD              2_11000010010111010000000000000
000
  398 000000C4 40490000        DCD              2_01000000010010010000000000000
000
  399 000000C8 404F4000        DCD              2_01000000010011110100000000000
000
  400 000000CC BEB00000        DCD              2_10111110101100000000000000000
000
  401 000000D0 C0D1A000        DCD              2_11000000110100011010000000000
000
  402 000000D4 C453C000        DCD              2_11000100010100111100000000000
000
  403 000000D8 C2870000        DCD              2_11000010100001110000000000000
000
  404 000000DC C43B8000        DCD              2_11000100001110111000000000000
000
  405 000000E0 BEB76000        DCD              2_10111110101101110110000000000
000
  406 000000E4 43C2C000        DCD              2_01000011110000101100000000000
000
  407 000000E8 C29A2000        DCD              2_11000010100110100010000000000
000
  408 000000EC C2C6A000        DCD              2_11000010110001101010000000000
000
  409 000000F0 3FF00000        DCD              2_00111111111100000000000000000
000
  410 000000F4 BF37C000        DCD              2_10111111001101111100000000000
000
  411 000000F8 400F6000        DCD              2_01000000000011110110000000000
000
  412 000000FC C379C000        DCD              2_11000011011110011100000000000
000
  413 00000100 BFCE6000        DCD              2_10111111110011100110000000000
000
  414 00000104 403F8000        DCD              2_01000000001111111000000000000
000
  415 00000108 44024000        DCD              2_01000100000000100100000000000
000
  416 0000010C 40CA4000        DCD              2_01000000110010100100000000000
000
  417 00000110 C1A5C000        DCD              2_11000001101001011100000000000
000
  418 00000114 3ED40000        DCD              2_00111110110101000000000000000
000
  419 00000118 C4364000        DCD              2_11000100001101100100000000000
000
  420 0000011C 419F0000        DCD              2_01000001100111110000000000000
000
  421 00000120 41700000        DCD              2_01000001011100000000000000000
000
  422 00000124 42CCC000        DCD              2_01000010110011001100000000000
000
  423 00000128 434D4000        DCD              2_01000011010011010100000000000
000
  424 0000012C 3FAC0000        DCD              2_00111111101011000000000000000



ARM Macro Assembler    Page 14 


000
  425 00000130 BE948000        DCD              2_10111110100101001000000000000
000
  426 00000134 C004C000        DCD              2_11000000000001001100000000000
000
  427 00000138 41412000        DCD              2_01000001010000010010000000000
000
  428 0000013C C1328000        DCD              2_11000001001100101000000000000
000
  429 00000140 BF948000        DCD              2_10111111100101001000000000000
000
  430 00000144 C0F28000        DCD              2_11000000111100101000000000000
000
  431 00000148 BFDE4000        DCD              2_10111111110111100100000000000
000
  432 0000014C 4155A000        DCD              2_01000001010101011010000000000
000
  433 00000150 43EA8000        DCD              2_01000011111010101000000000000
000
  434 00000154 C3106000        DCD              2_11000011000100000110000000000
000
  435 00000158 C190C000        DCD              2_11000001100100001100000000000
000
  436 0000015C BEA60000        DCD              2_10111110101001100000000000000
000
  437 00000160 41036000        DCD              2_01000001000000110110000000000
000
  438 00000164 445E2000        DCD              2_01000100010111100010000000000
000
  439 00000168 415F4000        DCD              2_01000001010111110100000000000
000
  440 0000016C C08CE000        DCD              2_11000000100011001110000000000
000
  441 00000170 3F1C2000        DCD              2_00111111000111000010000000000
000
  442 00000174 42EE0000        DCD              2_01000010111011100000000000000
000
  443 00000178 C32E0000        DCD              2_11000011001011100000000000000
000
  444 0000017C 4268C000        DCD              2_01000010011010001100000000000
000
  445 00000180 41624000        DCD              2_01000001011000100100000000000
000
  446 00000184 406E8000        DCD              2_01000000011011101000000000000
000
  447 00000188 C3790000        DCD              2_11000011011110010000000000000
000
  448 0000018C 4028C000        DCD              2_01000000001010001100000000000
000
  449 00000190 40BD4000        DCD              2_01000000101111010100000000000
000
  450 00000194 413A8000        DCD              2_01000001001110101000000000000
000
  451 00000198 3EE40000        DCD              2_00111110111001000000000000000
000
  452 0000019C BF3E6000        DCD              2_10111111001111100110000000000
000
  453 000001A0 BFDD0000        DCD              2_10111111110111010000000000000
000



ARM Macro Assembler    Page 15 


  454 000001A4 428B0000        DCD              2_01000010100010110000000000000
000
  455 000001A8 409E0000        DCD              2_01000000100111100000000000000
000
  456 000001AC 42584000        DCD              2_01000010010110000100000000000
000
  457 000001B0 42130000        DCD              2_01000010000100110000000000000
000
  458 000001B4 C1080000        DCD              2_11000001000010000000000000000
000
  459 000001B8 3FC18000        DCD              2_00111111110000011000000000000
000
  460 000001BC BE808000        DCD              2_10111110100000001000000000000
000
  461 000001C0 3F608000        DCD              2_00111111011000001000000000000
000
  462 000001C4 C0920000        DCD              2_11000000100100100000000000000
000
  463 000001C8 3F870000        DCD              2_00111111100001110000000000000
000
  464 000001CC BF658000        DCD              2_10111111011001011000000000000
000
  465 000001D0 C1688000        DCD              2_11000001011010001000000000000
000
  466 000001D4 BF7B0000        DCD              2_10111111011110110000000000000
000
  467 000001D8 BF96C000        DCD              2_10111111100101101100000000000
000
  468 000001DC C09E2000        DCD              2_11000000100111100010000000000
000
  469 000001E0 C03F6000        DCD              2_11000000001111110110000000000
000
  470 000001E4 404BA000        DCD              2_01000000010010111010000000000
000
  471 000001E8 BFF40000        DCD              2_10111111111101000000000000000
000
  472 000001EC C05A0000        DCD              2_11000000010110100000000000000
000
  473 000001F0 C29AC000        DCD              2_11000010100110101100000000000
000
  474 000001F4 41D88000        DCD              2_01000001110110001000000000000
000
  475 000001F8 C24F0000        DCD              2_11000010010011110000000000000
000
  476 000001FC C0BA0000        DCD              2_11000000101110100000000000000
000
  477 00000200 4336C000        DCD              2_01000011001101101100000000000
000
  478 00000204 C4598000        DCD              2_11000100010110011000000000000
000
  479 00000208 40642000        DCD              2_01000000011001000010000000000
000
  480 0000020C C0EF0000        DCD              2_11000000111011110000000000000
000
  481 00000210 44652000        DCD              2_01000100011001010010000000000
000
  482 00000214 C2BBC000        DCD              2_11000010101110111100000000000
000
  483 00000218 C33E8000        DCD              2_11000011001111101000000000000



ARM Macro Assembler    Page 16 


000
  484 0000021C 41946000        DCD              2_01000001100101000110000000000
000
  485 00000220 40B66000        DCD              2_01000000101101100110000000000
000
  486 00000224 C0614000        DCD              2_11000000011000010100000000000
000
  487 00000228 40F40000        DCD              2_01000000111101000000000000000
000
  488 0000022C C0D0E000        DCD              2_11000000110100001110000000000
000
  489 00000230 4054C000        DCD              2_01000000010101001100000000000
000
  490 00000234 43B36000        DCD              2_01000011101100110110000000000
000
  491 00000238 BF926000        DCD              2_10111111100100100110000000000
000
  492 0000023C 43E5A000        DCD              2_01000011111001011010000000000
000
  493 00000240 41528000        DCD              2_01000001010100101000000000000
000
  494 00000244 40332000        DCD              2_01000000001100110010000000000
000
  495 00000248 C44BC000        DCD              2_11000100010010111100000000000
000
  496 0000024C 3E9C0000        DCD              2_00111110100111000000000000000
000
  497 00000250 3EDF8000        DCD              2_00111110110111111000000000000
000
  498 00000254 3E908000        DCD              2_00111110100100001000000000000
000
  499 00000258 41BF2000        DCD              2_01000001101111110010000000000
000
  500 0000025C C4358000        DCD              2_11000100001101011000000000000
000
  501 00000260 BF618000        DCD              2_10111111011000011000000000000
000
  502 00000264 41200000        DCD              2_01000001001000000000000000000
000
  503 00000268 C3704000        DCD              2_11000011011100000100000000000
000
  504 0000026C 3F598000        DCD              2_00111111010110011000000000000
000
  505 00000270 C0C22000        DCD              2_11000000110000100010000000000
000
  506 00000274 42604000        DCD              2_01000010011000000100000000000
000
  507 00000278 FF800000        DCD              2_11111111100000000000000000000
000
  508 0000027C 7F800000        DCD              2_01111111100000000000000000000
000
  509 00000280 FF800180        DCD              2_11111111100000000000000110000
000
  510 00000284 4337C000        DCD              2_01000011001101111100000000000
000
  511 00000288 423A0000        DCD              2_01000010001110100000000000000
000
  512 0000028C 41748000        DCD              2_01000001011101001000000000000
000



ARM Macro Assembler    Page 17 


  513 00000290 441E8000        DCD              2_01000100000111101000000000000
000
  514 00000294 C2100000        DCD              2_11000010000100000000000000000
000
  515 00000298 C2B60000        DCD              2_11000010101101100000000000000
000
  516 0000029C C3914000        DCD              2_11000011100100010100000000000
000
  517 000002A0 C3ECC000        DCD              2_11000011111011001100000000000
000
  518 000002A4 43216000        DCD              2_01000011001000010110000000000
000
  519 000002A8 C32EE000        DCD              2_11000011001011101110000000000
000
  520 000002AC 440E4000        DCD              2_01000100000011100100000000000
000
  521 000002B0 C4644000        DCD              2_11000100011001000100000000000
000
  522 000002B4 C3C2A000        DCD              2_11000011110000101010000000000
000
  523 000002B8 40820000        DCD              2_01000000100000100000000000000
000
  524 000002BC C45E0000        DCD              2_11000100010111100000000000000
000
  525 000002C0 41A34000        DCD              2_01000001101000110100000000000
000
  526 000002C4 C29D6000        DCD              2_11000010100111010110000000000
000
  527 000002C8 43456000        DCD              2_01000011010001010110000000000
000
  528 000002CC BFB80000        DCD              2_10111111101110000000000000000
000
  529 000002D0 434AE000        DCD              2_01000011010010101110000000000
000
  530 000002D4 3F718000        DCD              2_00111111011100011000000000000
000
  531 000002D8 C247E000        DCD              2_11000010010001111110000000000
000
  532 000002DC C0AE0000        DCD              2_11000000101011100000000000000
000
  533 000002E0 C0B80000        DCD              2_11000000101110000000000000000
000
  534 000002E4 BF94A000        DCD              2_10111111100101001010000000000
000
  535 000002E8 42FE4000        DCD              2_01000010111111100100000000000
000
  536 000002EC C15DA000        DCD              2_11000001010111011010000000000
000
  537 000002F0 C2DF0000        DCD              2_11000010110111110000000000000
000
  538 000002F4 43C5C000        DCD              2_01000011110001011100000000000
000
  539 000002F8 C0542000        DCD              2_11000000010101000010000000000
000
  540 000002FC BF220000        DCD              2_10111111001000100000000000000
000
  541 00000300 4055A000        DCD              2_01000000010101011010000000000
000
  542 00000304 BF674000        DCD              2_10111111011001110100000000000



ARM Macro Assembler    Page 18 


000
  543 00000308 442C6000        DCD              2_01000100001011000110000000000
000
  544 0000030C C2B00000        DCD              2_11000010101100000000000000000
000
  545 00000310 3EC52000        DCD              2_00111110110001010010000000000
000
  546 00000314 C0EB6000        DCD              2_11000000111010110110000000000
000
  547 00000318 C21F0000        DCD              2_11000010000111110000000000000
000
  548 0000031C 43760000        DCD              2_01000011011101100000000000000
000
  549 00000320 BFC1C000        DCD              2_10111111110000011100000000000
000
  550 00000324 BF2D0000        DCD              2_10111111001011010000000000000
000
  551 00000328 43B64000        DCD              2_01000011101101100100000000000
000
  552 0000032C C2A40000        DCD              2_11000010101001000000000000000
000
  553 00000330 C2B94000        DCD              2_11000010101110010100000000000
000
  554 00000334 413BA000        DCD              2_01000001001110111010000000000
000
  555 00000338 C1C70000        DCD              2_11000001110001110000000000000
000
  556 0000033C 42550000        DCD              2_01000010010101010000000000000
000
  557 00000340 42D9C000        DCD              2_01000010110110011100000000000
000
  558 00000344 7F800000        DCD              2_01111111100000000000000000000
000
  559 00000348 BEC70000        DCD              2_10111110110001110000000000000
000
  560 0000034C C3A90000        DCD              2_11000011101010010000000000000
000
  561 00000350 3FAE2000        DCD              2_00111111101011100010000000000
000
  562 00000354 41A20000        DCD              2_01000001101000100000000000000
000
  563 00000358 BEBB0000        DCD              2_10111110101110110000000000000
000
  564 0000035C C3510000        DCD              2_11000011010100010000000000000
000
  565 00000360 C2984000        DCD              2_11000010100110000100000000000
000
  566 00000364 BFE06000        DCD              2_10111111111000000110000000000
000
  567 00000368 4076A000        DCD              2_01000000011101101010000000000
000
  568 0000036C C29E2000        DCD              2_11000010100111100010000000000
000
  569 00000370 41DEC000        DCD              2_01000001110111101100000000000
000
  570 00000374 C0F40000        DCD              2_11000000111101000000000000000
000
  571 00000378 C2040000        DCD              2_11000010000001000000000000000
000



ARM Macro Assembler    Page 19 


  572 0000037C 43E54000        DCD              2_01000011111001010100000000000
000
  573 00000380 C1560000        DCD              2_11000001010101100000000000000
000
  574 00000384 3F748000        DCD              2_00111111011101001000000000000
000
  575 00000388 42E90000        DCD              2_01000010111010010000000000000
000
  576 0000038C C102A000        DCD              2_11000001000000101010000000000
000
  577 00000390 41E18000        DCD              2_01000001111000011000000000000
000
  578 00000394 C2520000        DCD              2_11000010010100100000000000000
000
  579 00000398 401BC000        DCD              2_01000000000110111100000000000
000
  580 0000039C C44F8000        DCD              2_11000100010011111000000000000
000
  581 000003A0 41DC2000        DCD              2_01000001110111000010000000000
000
  582 000003A4 42E60000        DCD              2_01000010111001100000000000000
000
  583 000003A8 C0B20000        DCD              2_11000000101100100000000000000
000
  584 000003AC 3F2E0000        DCD              2_00111111001011100000000000000
000
  585 000003B0 3F162000        DCD              2_00111111000101100010000000000
000
  586 000003B4 C22D8000        DCD              2_11000010001011011000000000000
000
  587 000003B8 3FD28000        DCD              2_00111111110100101000000000000
000
  588 000003BC C1260000        DCD              2_11000001001001100000000000000
000
  589 000003C0 C3FB0000        DCD              2_11000011111110110000000000000
000
  590 000003C4 40166000        DCD              2_01000000000101100110000000000
000
  591 000003C8 C428A000        DCD              2_11000100001010001010000000000
000
  592 000003CC BF2C0000        DCD              2_10111111001011000000000000000
000
  593 000003D0 42BC0000        DCD              2_01000010101111000000000000000
000
  594 000003D4 3F7E0000        DCD              2_00111111011111100000000000000
000
  595 000003D8 400B8000        DCD              2_01000000000010111000000000000
000
  596 000003DC BE83E000        DCD              2_10111110100000111110000000000
000
  597 000003E0 408A0000        DCD              2_01000000100010100000000000000
000
  598 000003E4 40D10000        DCD              2_01000000110100010000000000000
000
  599 000003E8 4096C000        DCD              2_01000000100101101100000000000
000
  600 000003EC 43E60000        DCD              2_01000011111001100000000000000
000
  601 000003F0 BEA00000        DCD              2_10111110101000000000000000000



ARM Macro Assembler    Page 20 


000
  602 000003F4 C1764000        DCD              2_11000001011101100100000000000
000
  603 000003F8 3F44C000        DCD              2_00111111010001001100000000000
000
  604 000003FC C19C4000        DCD              2_11000001100111000100000000000
000
  605 00000400 407E8000        DCD              2_01000000011111101000000000000
000
  606 00000404 426DE000        DCD              2_01000010011011011110000000000
000
  607 00000408 C14D0000        DCD              2_11000001010011010000000000000
000
  608 0000040C 7F800000        DCD              2_01111111100000000000000000000
000
  609 00000410 40BCC000        DCD              2_01000000101111001100000000000
000
  610 00000414 00000000        DCD              2_00000000000000000000000000000
000
  611 00000418 C0890000        DCD              2_11000000100010010000000000000
000
  612 0000041C C0230000        DCD              2_11000000001000110000000000000
000
  613 00000420 443EC000        DCD              2_01000100001111101100000000000
000
  614 00000424 43B6E000        DCD              2_01000011101101101110000000000
000
  615 00000428 4029A000        DCD              2_01000000001010011010000000000
000
  616 0000042C 3EDF0000        DCD              2_00111110110111110000000000000
000
  617 00000430 C2DCA000        DCD              2_11000010110111001010000000000
000
  618 00000434 446A8000        DCD              2_01000100011010101000000000000
000
  619 00000438 41180000        DCD              2_01000001000110000000000000000
000
  620 0000043C 41CA8000        DCD              2_01000001110010101000000000000
000
  621 00000440 4115C000        DCD              2_01000001000101011100000000000
000
  622 00000444 C2A16000        DCD              2_11000010101000010110000000000
000
  623 00000448 C01C8000        DCD              2_11000000000111001000000000000
000
  624 0000044C C2684000        DCD              2_11000010011010000100000000000
000
  625 00000450 43896000        DCD              2_01000011100010010110000000000
000
  626 00000454 C02C4000        DCD              2_11000000001011000100000000000
000
  627 00000458 00000000        DCD              2_00000000000000000000000000000
000
  628 0000045C C15DC000        DCD              2_11000001010111011100000000000
000
  629 00000460 43630000        DCD              2_01000011011000110000000000000
000
  630 00000464 BF7D8000        DCD              2_10111111011111011000000000000
000



ARM Macro Assembler    Page 21 


  631 00000468 3F700000        DCD              2_00111111011100000000000000000
000
  632 0000046C 43D00000        DCD              2_01000011110100000000000000000
000
  633 00000470 C3A72000        DCD              2_11000011101001110010000000000
000
  634 00000474 42D18000        DCD              2_01000010110100011000000000000
000
  635 00000478 443FA000        DCD              2_01000100001111111010000000000
000
  636 0000047C 3EB38000        DCD              2_00111110101100111000000000000
000
  637 00000480 40190000        DCD              2_01000000000110010000000000000
000
  638 00000484 3EBD0000        DCD              2_00111110101111010000000000000
000
  639 00000488 3E8C4000        DCD              2_00111110100011000100000000000
000
  640 0000048C BF474000        DCD              2_10111111010001110100000000000
000
  641 00000490 40490000        DCD              2_01000000010010010000000000000
000
  642 00000494 C05D0000        DCD              2_11000000010111010000000000000
000
  643 00000498 3F37C000        DCD              2_00111111001101111100000000000
000
  644 0000049C 3FF64000        DCD              2_00111111111101100100000000000
000
  645 000004A0 3ED18000        DCD              2_00111110110100011000000000000
000
  646 000004A4 4235C000        DCD              2_01000010001101011100000000000
000
  647 000004A8 41EDA000        DCD              2_01000001111011011010000000000
000
  648 000004AC C1D78000        DCD              2_11000001110101111000000000000
000
  649 000004B0 C007C000        DCD              2_11000000000001111100000000000
000
  650 000004B4 3FC54000        DCD              2_00111111110001010100000000000
000
  651 000004B8 3FA80000        DCD              2_00111111101010000000000000000
000
  652 000004BC 3FB20000        DCD              2_00111111101100100000000000000
000
  653 000004C0 C35A8000        DCD              2_11000011010110101000000000000
000
  654 000004C4 431EC000        DCD              2_01000011000111101100000000000
000
  655 000004C8 7F800000        DCD              2_01111111100000000000000000000
000
  656 000004CC C0F54000        DCD              2_11000000111101010100000000000
000
  657 000004D0 C3F08000        DCD              2_11000011111100001000000000000
000
  658 000004D4 C2364000        DCD              2_11000010001101100100000000000
000
  659 000004D8 3F840000        DCD              2_00111111100001000000000000000
000
  660 000004DC 3FF0E000        DCD              2_00111111111100001110000000000



ARM Macro Assembler    Page 22 


000
  661 000004E0 C23A8000        DCD              2_11000010001110101000000000000
000
  662 000004E4 BF23A000        DCD              2_10111111001000111010000000000
000
  663 000004E8 C4000000        DCD              2_11000100000000000000000000000
000
  664 000004EC C1D52000        DCD              2_11000001110101010010000000000
000
  665 000004F0 C3CC8000        DCD              2_11000011110011001000000000000
000
  666 000004F4 C0520000        DCD              2_11000000010100100000000000000
000
  667 000004F8 BFBBA000        DCD              2_10111111101110111010000000000
000
  668 000004FC C3080000        DCD              2_11000011000010000000000000000
000
  669 00000500 C04B0000        DCD              2_11000000010010110000000000000
000
  670 00000504 C4564000        DCD              2_11000100010101100100000000000
000
  671 00000508 C0104000        DCD              2_11000000000100000100000000000
000
  672 0000050C C035E000        DCD              2_11000000001101011110000000000
000
  673 00000510 C00D0000        DCD              2_11000000000011010000000000000
000
  674 00000514 44226000        DCD              2_01000100001000100110000000000
000
  675 00000518 444FA000        DCD              2_01000100010011111010000000000
000
  676 0000051C 4280C000        DCD              2_01000010100000001100000000000
000
  677 00000520 C45E0000        DCD              2_11000100010111100000000000000
000
  678 00000524 43A0A000        DCD              2_01000011101000001010000000000
000
  679 00000528 43B18000        DCD              2_01000011101100011000000000000
000
  680 0000052C C3AC4000        DCD              2_11000011101011000100000000000
000
  681 00000530 C2604000        DCD              2_11000010011000000100000000000
000
  682 00000534 C4542000        DCD              2_11000100010101000010000000000
000
  683 00000538 40286000        DCD              2_01000000001010000110000000000
000
  684 0000053C 3EC90000        DCD              2_00111110110010010000000000000
000
  685 00000540 4161E000        DCD              2_01000001011000011110000000000
000
  686 00000544 C2BC8000        DCD              2_11000010101111001000000000000
000
  687 00000548 BF2B8000        DCD              2_10111111001010111000000000000
000
  688 0000054C C25B6000        DCD              2_11000010010110110110000000000
000
  689 00000550 BF8A0000        DCD              2_10111111100010100000000000000
000



ARM Macro Assembler    Page 23 


  690 00000554 4214A000        DCD              2_01000010000101001010000000000
000
  691 00000558 43B32000        DCD              2_01000011101100110010000000000
000
  692 0000055C 415E0000        DCD              2_01000001010111100000000000000
000
  693 00000560 41890000        DCD              2_01000001100010010000000000000
000
  694 00000564 C0A94000        DCD              2_11000000101010010100000000000
000
  695 00000568 BF460000        DCD              2_10111111010001100000000000000
000
  696 0000056C C2928000        DCD              2_11000010100100101000000000000
000
  697 00000570 C1ADE000        DCD              2_11000001101011011110000000000
000
  698 00000574 C09E4000        DCD              2_11000000100111100100000000000
000
  699 00000578 C3E48000        DCD              2_11000011111001001000000000000
000
  700 0000057C 3F2E8000        DCD              2_00111111001011101000000000000
000
  701 00000580 42C58000        DCD              2_01000010110001011000000000000
000
  702 00000584 BF9C4000        DCD              2_10111111100111000100000000000
000
  703 00000588 445E0000        DCD              2_01000100010111100000000000000
000
  704 0000058C BE90C000        DCD              2_10111110100100001100000000000
000
  705 00000590 40776000        DCD              2_01000000011101110110000000000
000
  706 00000594 41B16000        DCD              2_01000001101100010110000000000
000
  707 00000598 C1A88000        DCD              2_11000001101010001000000000000
000
  708 0000059C 43068000        DCD              2_01000011000001101000000000000
000
  709 000005A0 C3D50000        DCD              2_11000011110101010000000000000
000
  710 000005A4 4080A000        DCD              2_01000000100000001010000000000
000
  711 000005A8 C0E08000        DCD              2_11000000111000001000000000000
000
  712 000005AC BFC60000        DCD              2_10111111110001100000000000000
000
  713 000005B0 C2D86000        DCD              2_11000010110110000110000000000
000
  714 000005B4 BED4C000        DCD              2_10111110110101001100000000000
000
  715 000005B8 3FC88000        DCD              2_00111111110010001000000000000
000
  716 000005BC C16BC000        DCD              2_11000001011010111100000000000
000
  717 000005C0 420D0000        DCD              2_01000010000011010000000000000
000
  718 000005C4 418C8000        DCD              2_01000001100011001000000000000
000
  719 000005C8 C0068000        DCD              2_11000000000001101000000000000



ARM Macro Assembler    Page 24 


000
  720 000005CC 3F0CA000        DCD              2_00111111000011001010000000000
000
  721 000005D0 42198000        DCD              2_01000010000110011000000000000
000
  722 000005D4 4165C000        DCD              2_01000001011001011100000000000
000
  723 000005D8 00000000        DCD              2_00000000000000000000000000000
000
  724 000005DC 40390000        DCD              2_01000000001110010000000000000
000
  725 000005E0 C3918000        DCD              2_11000011100100011000000000000
000
  726 000005E4 43F74000        DCD              2_01000011111101110100000000000
000
  727 000005E8 415E0000        DCD              2_01000001010111100000000000000
000
  728 000005EC 3F316000        DCD              2_00111111001100010110000000000
000
  729 000005F0 C460A000        DCD              2_11000100011000001010000000000
000
  730 000005F4 42C50000        DCD              2_01000010110001010000000000000
000
  731 000005F8 3FE40000        DCD              2_00111111111001000000000000000
000
  732 000005FC 3EF4C000        DCD              2_00111110111101001100000000000
000
  733 00000600 3FA7C000        DCD              2_00111111101001111100000000000
000
  734 00000604 C4700000        DCD              2_11000100011100000000000000000
000
  735 00000608 C2190000        DCD              2_11000010000110010000000000000
000
  736 0000060C 421C0000        DCD              2_01000010000111000000000000000
000
  737 00000610 C36F0000        DCD              2_11000011011011110000000000000
000
  738 00000614 44660000        DCD              2_01000100011001100000000000000
000
  739 00000618 3F9F4000        DCD              2_00111111100111110100000000000
000
  740 0000061C 00000000        DCD              2_00000000000000000000000000000
000
  741 00000620 FF800000        DCD              2_11111111100000000000000000000
000
  742 00000624 3F382000        DCD              2_00111111001110000010000000000
000
  743 00000628 C1738000        DCD              2_11000001011100111000000000000
000
  744 0000062C C2DE8000        DCD              2_11000010110111101000000000000
000
  745 00000630 BF4E0000        DCD              2_10111111010011100000000000000
000
  746 00000634 C2164000        DCD              2_11000010000101100100000000000
000
  747 00000638 41778000        DCD              2_01000001011101111000000000000
000
  748 0000063C C102E000        DCD              2_11000001000000101110000000000
000



ARM Macro Assembler    Page 25 


  749 00000640 43112000        DCD              2_01000011000100010010000000000
000
  750 00000644 C199A000        DCD              2_11000001100110011010000000000
000
  751 00000648 41A82000        DCD              2_01000001101010000010000000000
000
  752 0000064C 3F8E2000        DCD              2_00111111100011100010000000000
000
  753 00000650 BF416000        DCD              2_10111111010000010110000000000
000
  754 00000654 C1C54000        DCD              2_11000001110001010100000000000
000
  755 00000658 43688000        DCD              2_01000011011010001000000000000
000
  756 0000065C C289C000        DCD              2_11000010100010011100000000000
000
  757 00000660 BFBBC000        DCD              2_10111111101110111100000000000
000
  758 00000664 41AE2000        DCD              2_01000001101011100010000000000
000
  759 00000668 430A0000        DCD              2_01000011000010100000000000000
000
  760 0000066C 3EAA2000        DCD              2_00111110101010100010000000000
000
  761 00000670 BF736000        DCD              2_10111111011100110110000000000
000
  762 00000674 3FBA8000        DCD              2_00111111101110101000000000000
000
  763 00000678 C0B90000        DCD              2_11000000101110010000000000000
000
  764 0000067C C117A000        DCD              2_11000001000101111010000000000
000
  765 00000680 BEA78000        DCD              2_10111110101001111000000000000
000
  766 00000684 C47E0000        DCD              2_11000100011111100000000000000
000
  767 00000688 C178C000        DCD              2_11000001011110001100000000000
000
  768 0000068C 3F5C4000        DCD              2_00111111010111000100000000000
000
  769 00000690 C2028000        DCD              2_11000010000000101000000000000
000
  770 00000694 BED8A000        DCD              2_10111110110110001010000000000
000
  771 00000698 C1A66000        DCD              2_11000001101001100110000000000
000
  772 0000069C BF8FC000        DCD              2_10111111100011111100000000000
000
  773 000006A0 BFE44000        DCD              2_10111111111001000100000000000
000
  774 000006A4 C097A000        DCD              2_11000000100101111010000000000
000
  775 000006A8 40F64000        DCD              2_01000000111101100100000000000
000
  776 000006AC BF140000        DCD              2_10111111000101000000000000000
000
  777 000006B0 42FA0000        DCD              2_01000010111110100000000000000
000
  778 000006B4 43418000        DCD              2_01000011010000011000000000000



ARM Macro Assembler    Page 26 


000
  779 000006B8 3E81C000        DCD              2_00111110100000011100000000000
000
  780 000006BC 40F6C000        DCD              2_01000000111101101100000000000
000
  781 000006C0 C4398000        DCD              2_11000100001110011000000000000
000
  782 000006C4 C3042000        DCD              2_11000011000001000010000000000
000
  783 000006C8 C1FA0000        DCD              2_11000001111110100000000000000
000
  784 000006CC 43AB8000        DCD              2_01000011101010111000000000000
000
  785 000006D0 C0158000        DCD              2_11000000000101011000000000000
000
  786 000006D4 3F366000        DCD              2_00111111001101100110000000000
000
  787 000006D8 C0CAA000        DCD              2_11000000110010101010000000000
000
  788 000006DC C24B8000        DCD              2_11000010010010111000000000000
000
  789 000006E0 C4658000        DCD              2_11000100011001011000000000000
000
  790 000006E4 BF2D0000        DCD              2_10111111001011010000000000000
000
  791 000006E8 C1C88000        DCD              2_11000001110010001000000000000
000
  792 000006EC C3D08000        DCD              2_11000011110100001000000000000
000
  793 000006F0 40D78000        DCD              2_01000000110101111000000000000
000
  794 000006F4 40F38000        DCD              2_01000000111100111000000000000
000
  795 000006F8 43B58000        DCD              2_01000011101101011000000000000
000
  796 000006FC 3F88C000        DCD              2_00111111100010001100000000000
000
  797 00000700 C001E000        DCD              2_11000000000000011110000000000
000
  798 00000704 43FC8000        DCD              2_01000011111111001000000000000
000
  799 00000708 424C8000        DCD              2_01000010010011001000000000000
000
  800 0000070C BFF6C000        DCD              2_10111111111101101100000000000
000
  801 00000710 C1504000        DCD              2_11000001010100000100000000000
000
  802 00000714 C02E0000        DCD              2_11000000001011100000000000000
000
  803 00000718 3EC02000        DCD              2_00111110110000000010000000000
000
  804 0000071C C2200000        DCD              2_11000010001000000000000000000
000
  805 00000720 40C9E000        DCD              2_01000000110010011110000000000
000
  806 00000724 4457C000        DCD              2_01000100010101111100000000000
000
  807 00000728 C00EC000        DCD              2_11000000000011101100000000000
000



ARM Macro Assembler    Page 27 


  808 0000072C 433D0000        DCD              2_01000011001111010000000000000
000
  809 00000730 400E0000        DCD              2_01000000000011100000000000000
000
  810 00000734 43978000        DCD              2_01000011100101111000000000000
000
  811 00000738 41246000        DCD              2_01000001001001000110000000000
000
  812 0000073C C1950000        DCD              2_11000001100101010000000000000
000
  813 00000740 444F0000        DCD              2_01000100010011110000000000000
000
  814 00000744 C0BCC000        DCD              2_11000000101111001100000000000
000
  815 00000748 41D54000        DCD              2_01000001110101010100000000000
000
  816 0000074C C0A20000        DCD              2_11000000101000100000000000000
000
  817 00000750 41870000        DCD              2_01000001100001110000000000000
000
  818 00000754 42DC8000        DCD              2_01000010110111001000000000000
000
  819 00000758 C2C44000        DCD              2_11000010110001000100000000000
000
  820 0000075C BF524000        DCD              2_10111111010100100100000000000
000
  821 00000760 4122C000        DCD              2_01000001001000101100000000000
000
  822 00000764 C25B8000        DCD              2_11000010010110111000000000000
000
  823 00000768 C091E000        DCD              2_11000000100100011110000000000
000
  824 0000076C C40D6000        DCD              2_11000100000011010110000000000
000
  825 00000770 422A0000        DCD              2_01000010001010100000000000000
000
  826 00000774 FF800180        DCD              2_11111111100000000000000110000
000
  827 00000778 C143C000        DCD              2_11000001010000111100000000000
000
  828 0000077C C0C78000        DCD              2_11000000110001111000000000000
000
  829 00000780 42134000        DCD              2_01000010000100110100000000000
000
  830 00000784 4473C000        DCD              2_01000100011100111100000000000
000
  831 00000788 C3AE0000        DCD              2_11000011101011100000000000000
000
  832 0000078C 3FCAC000        DCD              2_00111111110010101100000000000
000
  833 00000790 BF04A000        DCD              2_10111111000001001010000000000
000
  834 00000794 4159C000        DCD              2_01000001010110011100000000000
000
  835 00000798 41022000        DCD              2_01000001000000100010000000000
000
  836 0000079C BF9F8000        DCD              2_10111111100111111000000000000
000
  837 000007A0 43C90000        DCD              2_01000011110010010000000000000



ARM Macro Assembler    Page 28 


000
  838 000007A4 42EB0000        DCD              2_01000010111010110000000000000
000
  839 000007A8 C0384000        DCD              2_11000000001110000100000000000
000
  840 000007AC 4028E000        DCD              2_01000000001010001110000000000
000
  841 000007B0 C3C4C000        DCD              2_11000011110001001100000000000
000
  842 000007B4 3F368000        DCD              2_00111111001101101000000000000
000
  843 000007B8 BF8A0000        DCD              2_10111111100010100000000000000
000
  844 000007BC 41800000        DCD              2_01000001100000000000000000000
000
  845 000007C0 C445A000        DCD              2_11000100010001011010000000000
000
  846 000007C4 40D06000        DCD              2_01000000110100000110000000000
000
  847 000007C8 40CF4000        DCD              2_01000000110011110100000000000
000
  848 000007CC C3450000        DCD              2_11000011010001010000000000000
000
  849 000007D0 BFE90000        DCD              2_10111111111010010000000000000
000
  850 000007D4 BF46C000        DCD              2_10111111010001101100000000000
000
  851 000007D8 409F0000        DCD              2_01000000100111110000000000000
000
  852 000007DC BFE00000        DCD              2_10111111111000000000000000000
000
  853 000007E0 C0346000        DCD              2_11000000001101000110000000000
000
  854 000007E4 40788000        DCD              2_01000000011110001000000000000
000
  855 000007E8 C1EF0000        DCD              2_11000001111011110000000000000
000
  856 000007EC 42270000        DCD              2_01000010001001110000000000000
000
  857 000007F0 C4784000        DCD              2_11000100011110000100000000000
000
  858 000007F4 42136000        DCD              2_01000010000100110110000000000
000
  859 000007F8 3ED10000        DCD              2_00111110110100010000000000000
000
  860 000007FC 41E40000        DCD              2_01000001111001000000000000000
000
  861 00000800 40E90000        DCD              2_01000000111010010000000000000
000
  862 00000804 C422A000        DCD              2_11000100001000101010000000000
000
  863 00000808 3F5C4000        DCD              2_00111111010111000100000000000
000
  864 0000080C 436BA000        DCD              2_01000011011010111010000000000
000
  865 00000810 C3080000        DCD              2_11000011000010000000000000000
000
  866 00000814 C3028000        DCD              2_11000011000000101000000000000
000



ARM Macro Assembler    Page 29 


  867 00000818 3EB50000        DCD              2_00111110101101010000000000000
000
  868 0000081C C3260000        DCD              2_11000011001001100000000000000
000
  869 00000820 3F2AC000        DCD              2_00111111001010101100000000000
000
  870 00000824 BE864000        DCD              2_10111110100001100100000000000
000
  871 00000828 BEA48000        DCD              2_10111110101001001000000000000
000
  872 0000082C C2970000        DCD              2_11000010100101110000000000000
000
  873 00000830 C4414000        DCD              2_11000100010000010100000000000
000
  874 00000834 C4146000        DCD              2_11000100000101000110000000000
000
  875 00000838 408C4000        DCD              2_01000000100011000100000000000
000
  876 0000083C BF208000        DCD              2_10111111001000001000000000000
000
  877 00000840 C2860000        DCD              2_11000010100001100000000000000
000
  878 00000844 42A6C000        DCD              2_01000010101001101100000000000
000
  879 00000848 C3978000        DCD              2_11000011100101111000000000000
000
  880 0000084C 3F250000        DCD              2_00111111001001010000000000000
000
  881 00000850 C005C000        DCD              2_11000000000001011100000000000
000
  882 00000854 C35AC000        DCD              2_11000011010110101100000000000
000
  883 00000858 3F028000        DCD              2_00111111000000101000000000000
000
  884 0000085C C3A38000        DCD              2_11000011101000111000000000000
000
  885 00000860 43CD0000        DCD              2_01000011110011010000000000000
000
  886 00000864 C3A3A000        DCD              2_11000011101000111010000000000
000
  887 00000868 BF592000        DCD              2_10111111010110010010000000000
000
  888 0000086C C1BD4000        DCD              2_11000001101111010100000000000
000
  889 00000870 3E88A000        DCD              2_00111110100010001010000000000
000
  890 00000874 BEAF4000        DCD              2_10111110101011110100000000000
000
  891 00000878 40B2A000        DCD              2_01000000101100101010000000000
000
  892 0000087C BFB10000        DCD              2_10111111101100010000000000000
000
  893 00000880 C1528000        DCD              2_11000001010100101000000000000
000
  894 00000884 43EC0000        DCD              2_01000011111011000000000000000
000
  895 00000888 4149C000        DCD              2_01000001010010011100000000000
000
  896 0000088C C1F20000        DCD              2_11000001111100100000000000000



ARM Macro Assembler    Page 30 


000
  897 00000890 41C08000        DCD              2_01000001110000001000000000000
000
  898 00000894 3ECD2000        DCD              2_00111110110011010010000000000
000
  899 00000898 42B82000        DCD              2_01000010101110000010000000000
000
  900 0000089C BF978000        DCD              2_10111111100101111000000000000
000
  901 000008A0 42E42000        DCD              2_01000010111001000010000000000
000
  902 000008A4 C3CB4000        DCD              2_11000011110010110100000000000
000
  903 000008A8 C1B8C000        DCD              2_11000001101110001100000000000
000
  904 000008AC 3E8C4000        DCD              2_00111110100011000100000000000
000
  905 000008B0 C2D7C000        DCD              2_11000010110101111100000000000
000
  906 000008B4 C2F16000        DCD              2_11000010111100010110000000000
000
  907 000008B8 41EEC000        DCD              2_01000001111011101100000000000
000
  908 000008BC C00D8000        DCD              2_11000000000011011000000000000
000
  909 000008C0 C1838000        DCD              2_11000001100000111000000000000
000
  910 000008C4 41EB0000        DCD              2_01000001111010110000000000000
000
  911 000008C8 BE9F0000        DCD              2_10111110100111110000000000000
000
  912 000008CC 40318000        DCD              2_01000000001100011000000000000
000
  913 000008D0 40A44000        DCD              2_01000000101001000100000000000
000
  914 000008D4 C4486000        DCD              2_11000100010010000110000000000
000
  915 000008D8 C4458000        DCD              2_11000100010001011000000000000
000
  916 000008DC 3EC24000        DCD              2_00111110110000100100000000000
000
  917 000008E0 BFBEC000        DCD              2_10111111101111101100000000000
000
  918 000008E4 BEEB4000        DCD              2_10111110111010110100000000000
000
  919 000008E8 C31F8000        DCD              2_11000011000111111000000000000
000
  920 000008EC 42218000        DCD              2_01000010001000011000000000000
000
  921 000008F0 43CFA000        DCD              2_01000011110011111010000000000
000
  922 000008F4 42B90000        DCD              2_01000010101110010000000000000
000
  923 000008F8 C36BE000        DCD              2_11000011011010111110000000000
000
  924 000008FC 41C5C000        DCD              2_01000001110001011100000000000
000
  925 00000900 4402A000        DCD              2_01000100000000101010000000000
000



ARM Macro Assembler    Page 31 


  926 00000904 4282C000        DCD              2_01000010100000101100000000000
000
  927 00000908 404A0000        DCD              2_01000000010010100000000000000
000
  928 0000090C BFB36000        DCD              2_10111111101100110110000000000
000
  929 00000910 BEBD8000        DCD              2_10111110101111011000000000000
000
  930 00000914 BF990000        DCD              2_10111111100110010000000000000
000
  931 00000918 42AF0000        DCD              2_01000010101011110000000000000
000
  932 0000091C BFC34000        DCD              2_10111111110000110100000000000
000
  933 00000920 41176000        DCD              2_01000001000101110110000000000
000
  934 00000924 3ECB2000        DCD              2_00111110110010110010000000000
000
  935 00000928 C0C00000        DCD              2_11000000110000000000000000000
000
  936 0000092C 405CA000        DCD              2_01000000010111001010000000000
000
  937 00000930 3FE4C000        DCD              2_00111111111001001100000000000
000
  938 00000934 3EB70000        DCD              2_00111110101101110000000000000
000
  939 00000938 C3F6A000        DCD              2_11000011111101101010000000000
000
  940 0000093C 4226C000        DCD              2_01000010001001101100000000000
000
  941 00000940 BF72C000        DCD              2_10111111011100101100000000000
000
  942 00000944 C0390000        DCD              2_11000000001110010000000000000
000
  943 00000948 40988000        DCD              2_01000000100110001000000000000
000
  944 0000094C BF224000        DCD              2_10111111001000100100000000000
000
  945 00000950 C18BA000        DCD              2_11000001100010111010000000000
000
  946 00000954 C10F0000        DCD              2_11000001000011110000000000000
000
  947 00000958 41B54000        DCD              2_01000001101101010100000000000
000
  948 0000095C FF800000        DCD              2_11111111100000000000000000000
000
  949 00000960 C0574000        DCD              2_11000000010101110100000000000
000
  950 00000964 BF480000        DCD              2_10111111010010000000000000000
000
  951 00000968 C3968000        DCD              2_11000011100101101000000000000
000
  952 0000096C 40360000        DCD              2_01000000001101100000000000000
000
  953 00000970 40D64000        DCD              2_01000000110101100100000000000
000
  954 00000974 BE84C000        DCD              2_10111110100001001100000000000
000
  955 00000978 C2266000        DCD              2_11000010001001100110000000000



ARM Macro Assembler    Page 32 


000
  956 0000097C C23D2000        DCD              2_11000010001111010010000000000
000
  957 00000980 3FE18000        DCD              2_00111111111000011000000000000
000
  958 00000984 3EA9A000        DCD              2_00111110101010011010000000000
000
  959 00000988 C0B0A000        DCD              2_11000000101100001010000000000
000
  960 0000098C 3E900000        DCD              2_00111110100100000000000000000
000
  961 00000990 44018000        DCD              2_01000100000000011000000000000
000
  962 00000994 C26C0000        DCD              2_11000010011011000000000000000
000
  963 00000998 7F800000        DCD              2_01111111100000000000000000000
000
  964 0000099C BE8F8000        DCD              2_10111110100011111000000000000
000
  965 000009A0 C3834000        DCD              2_11000011100000110100000000000
000
  966 000009A4 00000000        DCD              2_00000000000000000000000000000
000
  967 000009A8 404D6000        DCD              2_01000000010011010110000000000
000
  968 000009AC C0A90000        DCD              2_11000000101010010000000000000
000
  969 000009B0 417E0000        DCD              2_01000001011111100000000000000
000
  970 000009B4 4418A000        DCD              2_01000100000110001010000000000
000
  971 000009B8 41AE0000        DCD              2_01000001101011100000000000000
000
  972 000009BC C1CF8000        DCD              2_11000001110011111000000000000
000
  973 000009C0 BEF44000        DCD              2_10111110111101000100000000000
000
  974 000009C4 40060000        DCD              2_01000000000001100000000000000
000
  975 000009C8 40D62000        DCD              2_01000000110101100010000000000
000
  976 000009CC 436C0000        DCD              2_01000011011011000000000000000
000
  977 000009D0 C36A8000        DCD              2_11000011011010101000000000000
000
  978 000009D4 3F472000        DCD              2_00111111010001110010000000000
000
  979 000009D8 C12D8000        DCD              2_11000001001011011000000000000
000
  980 000009DC BF2D0000        DCD              2_10111111001011010000000000000
000
  981 000009E0 C3264000        DCD              2_11000011001001100100000000000
000
  982 000009E4 BF760000        DCD              2_10111111011101100000000000000
000
  983 000009E8 40140000        DCD              2_01000000000101000000000000000
000
  984 000009EC 419A0000        DCD              2_01000001100110100000000000000
000



ARM Macro Assembler    Page 33 


  985 000009F0 C25B4000        DCD              2_11000010010110110100000000000
000
  986 000009F4 C1076000        DCD              2_11000001000001110110000000000
000
  987 000009F8 43858000        DCD              2_01000011100001011000000000000
000
  988 000009FC C2D60000        DCD              2_11000010110101100000000000000
000
  989 00000A00 3FFBC000        DCD              2_00111111111110111100000000000
000
  990 00000A04 44516000        DCD              2_01000100010100010110000000000
000
  991 00000A08 C06CC000        DCD              2_11000000011011001100000000000
000
  992 00000A0C C3C32000        DCD              2_11000011110000110010000000000
000
  993 00000A10 43860000        DCD              2_01000011100001100000000000000
000
  994 00000A14 40244000        DCD              2_01000000001001000100000000000
000
  995 00000A18 C389C000        DCD              2_11000011100010011100000000000
000
  996 00000A1C C1120000        DCD              2_11000001000100100000000000000
000
  997 00000A20 C08F6000        DCD              2_11000000100011110110000000000
000
  998 00000A24 C0496000        DCD              2_11000000010010010110000000000
000
  999 00000A28 C0012000        DCD              2_11000000000000010010000000000
000
 1000 00000A2C 40C30000        DCD              2_01000000110000110000000000000
000
 1001 00000A30 BEF38000        DCD              2_10111110111100111000000000000
000
 1002 00000A34 40AC0000        DCD              2_01000000101011000000000000000
000
 1003 00000A38 C040C000        DCD              2_11000000010000001100000000000
000
 1004 00000A3C C0A8C000        DCD              2_11000000101010001100000000000
000
 1005 00000A40 C2804000        DCD              2_11000010100000000100000000000
000
 1006 00000A44 C3EC0000        DCD              2_11000011111011000000000000000
000
 1007 00000A48 C1140000        DCD              2_11000001000101000000000000000
000
 1008 00000A4C BED04000        DCD              2_10111110110100000100000000000
000
 1009 00000A50 FF800180        DCD              2_11111111100000000000000110000
000
 1010 00000A54 3EDF8000        DCD              2_00111110110111111000000000000
000
 1011 00000A58 BF21A000        DCD              2_10111111001000011010000000000
000
 1012 00000A5C C0A58000        DCD              2_11000000101001011000000000000
000
 1013 00000A60 C469A000        DCD              2_11000100011010011010000000000
000
 1014 00000A64 441C8000        DCD              2_01000100000111001000000000000



ARM Macro Assembler    Page 34 


000
 1015 00000A68 BF34A000        DCD              2_10111111001101001010000000000
000
 1016 00000A6C 42080000        DCD              2_01000010000010000000000000000
000
 1017 00000A70 C27C0000        DCD              2_11000010011111000000000000000
000
 1018 00000A74 C1D48000        DCD              2_11000001110101001000000000000
000
 1019 00000A78 3F76E000        DCD              2_00111111011101101110000000000
000
 1020 00000A7C C0728000        DCD              2_11000000011100101000000000000
000
 1021 00000A80 C3956000        DCD              2_11000011100101010110000000000
000
 1022 00000A84 C139C000        DCD              2_11000001001110011100000000000
000
 1023 00000A88 43A6C000        DCD              2_01000011101001101100000000000
000
 1024 00000A8C C1F64000        DCD              2_11000001111101100100000000000
000
 1025 00000A90 C1B30000        DCD              2_11000001101100110000000000000
000
 1026 00000A94 BF0E4000        DCD              2_10111111000011100100000000000
000
 1027 00000A98 414A8000        DCD              2_01000001010010101000000000000
000
 1028 00000A9C C3644000        DCD              2_11000011011001000100000000000
000
 1029 00000AA0 3F8A6000        DCD              2_00111111100010100110000000000
000
 1030 00000AA4 42CD4000        DCD              2_01000010110011010100000000000
000
 1031 00000AA8 44120000        DCD              2_01000100000100100000000000000
000
 1032 00000AAC C01D4000        DCD              2_11000000000111010100000000000
000
 1033 00000AB0 40BDC000        DCD              2_01000000101111011100000000000
000
 1034 00000AB4 40BD0000        DCD              2_01000000101111010000000000000
000
 1035 00000AB8 C0C1A000        DCD              2_11000000110000011010000000000
000
 1036 00000ABC BF59C000        DCD              2_10111111010110011100000000000
000
 1037 00000AC0 C33B0000        DCD              2_11000011001110110000000000000
000
 1038 00000AC4 42574000        DCD              2_01000010010101110100000000000
000
 1039 00000AC8 444C8000        DCD              2_01000100010011001000000000000
000
 1040 00000ACC C119C000        DCD              2_11000001000110011100000000000
000
 1041 00000AD0 3F02A000        DCD              2_00111111000000101010000000000
000
 1042 00000AD4 43E50000        DCD              2_01000011111001010000000000000
000
 1043 00000AD8 41E08000        DCD              2_01000001111000001000000000000
000



ARM Macro Assembler    Page 35 


 1044 00000ADC 43D98000        DCD              2_01000011110110011000000000000
000
 1045 00000AE0 C1B42000        DCD              2_11000001101101000010000000000
000
 1046 00000AE4 3E9D2000        DCD              2_00111110100111010010000000000
000
 1047 00000AE8 40F76000        DCD              2_01000000111101110110000000000
000
 1048 00000AEC BEAF0000        DCD              2_10111110101011110000000000000
000
 1049 00000AF0 42EC6000        DCD              2_01000010111011000110000000000
000
 1050 00000AF4 434B0000        DCD              2_01000011010010110000000000000
000
 1051 00000AF8 BF3DE000        DCD              2_10111111001111011110000000000
000
 1052 00000AFC C3D7C000        DCD              2_11000011110101111100000000000
000
 1053 00000B00 3EC84000        DCD              2_00111110110010000100000000000
000
 1054 00000B04 C1944000        DCD              2_11000001100101000100000000000
000
 1055 00000B08 40230000        DCD              2_01000000001000110000000000000
000
 1056 00000B0C C1760000        DCD              2_11000001011101100000000000000
000
 1057 00000B10 4244A000        DCD              2_01000010010001001010000000000
000
 1058 00000B14 419A8000        DCD              2_01000001100110101000000000000
000
 1059 00000B18 42940000        DCD              2_01000010100101000000000000000
000
 1060 00000B1C BEFA8000        DCD              2_10111110111110101000000000000
000
 1061 00000B20 43BE0000        DCD              2_01000011101111100000000000000
000
 1062 00000B24 412E4000        DCD              2_01000001001011100100000000000
000
 1063 00000B28 3F07C000        DCD              2_00111111000001111100000000000
000
 1064 00000B2C 43084000        DCD              2_01000011000010000100000000000
000
 1065 00000B30 3F4FC000        DCD              2_00111111010011111100000000000
000
 1066 00000B34 BFB5C000        DCD              2_10111111101101011100000000000
000
 1067 00000B38 C2220000        DCD              2_11000010001000100000000000000
000
 1068 00000B3C 43698000        DCD              2_01000011011010011000000000000
000
 1069 00000B40 42786000        DCD              2_01000010011110000110000000000
000
 1070 00000B44 40702000        DCD              2_01000000011100000010000000000
000
 1071 00000B48 BF0C0000        DCD              2_10111111000011000000000000000
000
 1072 00000B4C BFD74000        DCD              2_10111111110101110100000000000
000
 1073 00000B50 43F50000        DCD              2_01000011111101010000000000000



ARM Macro Assembler    Page 36 


000
 1074 00000B54 41AF4000        DCD              2_01000001101011110100000000000
000
 1075 00000B58 BE950000        DCD              2_10111110100101010000000000000
000
 1076 00000B5C C1ADA000        DCD              2_11000001101011011010000000000
000
 1077 00000B60 BFC9C000        DCD              2_10111111110010011100000000000
000
 1078 00000B64 BEA2C000        DCD              2_10111110101000101100000000000
000
 1079 00000B68 3EB5C000        DCD              2_00111110101101011100000000000
000
 1080 00000B6C FF800000        DCD              2_11111111100000000000000000000
000
 1081 00000B70 C3502000        DCD              2_11000011010100000010000000000
000
 1082 00000B74 44244000        DCD              2_01000100001001000100000000000
000
 1083 00000B78 41CA2000        DCD              2_01000001110010100010000000000
000
 1084 00000B7C BFB14000        DCD              2_10111111101100010100000000000
000
 1085 00000B80 C1E50000        DCD              2_11000001111001010000000000000
000
 1086 00000B84 410D6000        DCD              2_01000001000011010110000000000
000
 1087 00000B88 406B4000        DCD              2_01000000011010110100000000000
000
 1088 00000B8C C02DA000        DCD              2_11000000001011011010000000000
000
 1089 00000B90 C2CEC000        DCD              2_11000010110011101100000000000
000
 1090 00000B94 C1A20000        DCD              2_11000001101000100000000000000
000
 1091 00000B98 3EEB6000        DCD              2_00111110111010110110000000000
000
 1092 00000B9C BF8FE000        DCD              2_10111111100011111110000000000
000
 1093 00000BA0 C1F08000        DCD              2_11000001111100001000000000000
000
 1094 00000BA4 C2812000        DCD              2_11000010100000010010000000000
000
 1095 00000BA8 C2112000        DCD              2_11000010000100010010000000000
000
 1096 00000BAC BF450000        DCD              2_10111111010001010000000000000
000
 1097 00000BB0 420AC000        DCD              2_01000010000010101100000000000
000
 1098 00000BB4 42A7A000        DCD              2_01000010101001111010000000000
000
 1099 00000BB8 BFF68000        DCD              2_10111111111101101000000000000
000
 1100 00000BBC 4250C000        DCD              2_01000010010100001100000000000
000
 1101 00000BC0 C37A8000        DCD              2_11000011011110101000000000000
000
 1102 00000BC4 439A0000        DCD              2_01000011100110100000000000000
000



ARM Macro Assembler    Page 37 


 1103 00000BC8 C3244000        DCD              2_11000011001001000100000000000
000
 1104 00000BCC 43198000        DCD              2_01000011000110011000000000000
000
 1105 00000BD0 42A00000        DCD              2_01000010101000000000000000000
000
 1106 00000BD4 C349C000        DCD              2_11000011010010011100000000000
000
 1107 00000BD8 C1F58000        DCD              2_11000001111101011000000000000
000
 1108 00000BDC 41134000        DCD              2_01000001000100110100000000000
000
 1109 00000BE0 C38AC000        DCD              2_11000011100010101100000000000
000
 1110 00000BE4 3FDA6000        DCD              2_00111111110110100110000000000
000
 1111 00000BE8 BED42000        DCD              2_10111110110101000010000000000
000
 1112 00000BEC BECA6000        DCD              2_10111110110010100110000000000
000
 1113 00000BF0 42460000        DCD              2_01000010010001100000000000000
000
 1114 00000BF4 3ED72000        DCD              2_00111110110101110010000000000
000
 1115 00000BF8 40098000        DCD              2_01000000000010011000000000000
000
 1116 00000BFC 438B0000        DCD              2_01000011100010110000000000000
000
 1117 00000C00 3EAB6000        DCD              2_00111110101010110110000000000
000
 1118 00000C04 BEB38000        DCD              2_10111110101100111000000000000
000
 1119 00000C08 43360000        DCD              2_01000011001101100000000000000
000
 1120 00000C0C 441BC000        DCD              2_01000100000110111100000000000
000
 1121 00000C10 C1DE0000        DCD              2_11000001110111100000000000000
000
 1122 00000C14 3ED28000        DCD              2_00111110110100101000000000000
000
 1123 00000C18 3F70A000        DCD              2_00111111011100001010000000000
000
 1124 00000C1C BFE18000        DCD              2_10111111111000011000000000000
000
 1125 00000C20 C007E000        DCD              2_11000000000001111110000000000
000
 1126 00000C24 BF9F4000        DCD              2_10111111100111110100000000000
000
 1127 00000C28 C32D2000        DCD              2_11000011001011010010000000000
000
 1128 00000C2C 40888000        DCD              2_01000000100010001000000000000
000
 1129 00000C30 4310C000        DCD              2_01000011000100001100000000000
000
 1130 00000C34 42A08000        DCD              2_01000010101000001000000000000
000
 1131 00000C38 41D8E000        DCD              2_01000001110110001110000000000
000
 1132 00000C3C BEC08000        DCD              2_10111110110000001000000000000



ARM Macro Assembler    Page 38 


000
 1133 00000C40 3EDDA000        DCD              2_00111110110111011010000000000
000
 1134 00000C44 C44F8000        DCD              2_11000100010011111000000000000
000
 1135 00000C48 C349C000        DCD              2_11000011010010011100000000000
000
 1136 00000C4C C248A000        DCD              2_11000010010010001010000000000
000
 1137 00000C50 FF800180        DCD              2_11111111100000000000000110000
000
 1138 00000C54 C43E0000        DCD              2_11000100001111100000000000000
000
 1139 00000C58 BF530000        DCD              2_10111111010100110000000000000
000
 1140 00000C5C C18F0000        DCD              2_11000001100011110000000000000
000
 1141 00000C60 C2470000        DCD              2_11000010010001110000000000000
000
 1142 00000C64 C0676000        DCD              2_11000000011001110110000000000
000
 1143 00000C68 43D90000        DCD              2_01000011110110010000000000000
000
 1144 00000C6C 3F5C0000        DCD              2_00111111010111000000000000000
000
 1145 00000C70 41F4C000        DCD              2_01000001111101001100000000000
000
 1146 00000C74 BEF60000        DCD              2_10111110111101100000000000000
000
 1147 00000C78 BF010000        DCD              2_10111111000000010000000000000
000
 1148 00000C7C 40AA0000        DCD              2_01000000101010100000000000000
000
 1149 00000C80 C0F80000        DCD              2_11000000111110000000000000000
000
 1150 00000C84 4361C000        DCD              2_01000011011000011100000000000
000
 1151 00000C88 C0720000        DCD              2_11000000011100100000000000000
000
 1152 00000C8C C00C0000        DCD              2_11000000000011000000000000000
000
 1153 00000C90 BFF90000        DCD              2_10111111111110010000000000000
000
 1154 00000C94 43CC2000        DCD              2_01000011110011000010000000000
000
 1155 00000C98 C1F1E000        DCD              2_11000001111100011110000000000
000
 1156 00000C9C C17F4000        DCD              2_11000001011111110100000000000
000
 1157 00000CA0 40A28000        DCD              2_01000000101000101000000000000
000
 1158 00000CA4 41E94000        DCD              2_01000001111010010100000000000
000
 1159 00000CA8 3F372000        DCD              2_00111111001101110010000000000
000
 1160 00000CAC C1C4A000        DCD              2_11000001110001001010000000000
000
 1161 00000CB0 3F11C000        DCD              2_00111111000100011100000000000
000



ARM Macro Assembler    Page 39 


 1162 00000CB4 C00F0000        DCD              2_11000000000011110000000000000
000
 1163 00000CB8 C39B4000        DCD              2_11000011100110110100000000000
000
 1164 00000CBC 3EAB8000        DCD              2_00111110101010111000000000000
000
 1165 00000CC0 C2D70000        DCD              2_11000010110101110000000000000
000
 1166 00000CC4 42A20000        DCD              2_01000010101000100000000000000
000
 1167 00000CC8 434C8000        DCD              2_01000011010011001000000000000
000
 1168 00000CCC C035E000        DCD              2_11000000001101011110000000000
000
 1169 00000CD0 43C22000        DCD              2_01000011110000100010000000000
000
 1170 00000CD4 C082C000        DCD              2_11000000100000101100000000000
000
 1171 00000CD8 411CC000        DCD              2_01000001000111001100000000000
000
 1172 00000CDC C4700000        DCD              2_11000100011100000000000000000
000
 1173 00000CE0 412AC000        DCD              2_01000001001010101100000000000
000
 1174 00000CE4 C2158000        DCD              2_11000010000101011000000000000
000
 1175 00000CE8 C4180000        DCD              2_11000100000110000000000000000
000
 1176 00000CEC C0A9E000        DCD              2_11000000101010011110000000000
000
 1177 00000CF0 C1EA0000        DCD              2_11000001111010100000000000000
000
 1178 00000CF4 41CC0000        DCD              2_01000001110011000000000000000
000
 1179 00000CF8 42BCA000        DCD              2_01000010101111001010000000000
000
 1180 00000CFC C38D0000        DCD              2_11000011100011010000000000000
000
 1181 00000D00 42F2E000        DCD              2_01000010111100101110000000000
000
 1182 00000D04 BEE2C000        DCD              2_10111110111000101100000000000
000
 1183 00000D08 43AF8000        DCD              2_01000011101011111000000000000
000
 1184 00000D0C 3F51A000        DCD              2_00111111010100011010000000000
000
 1185 00000D10 C149E000        DCD              2_11000001010010011110000000000
000
 1186 00000D14 3FC22000        DCD              2_00111111110000100010000000000
000
 1187 00000D18 C0ADE000        DCD              2_11000000101011011110000000000
000
 1188 00000D1C C459E000        DCD              2_11000100010110011110000000000
000
 1189 00000D20 C075C000        DCD              2_11000000011101011100000000000
000
 1190 00000D24 BF91C000        DCD              2_10111111100100011100000000000
000
 1191 00000D28 C3220000        DCD              2_11000011001000100000000000000



ARM Macro Assembler    Page 40 


000
 1192 00000D2C 40440000        DCD              2_01000000010001000000000000000
000
 1193 00000D30 430A2000        DCD              2_01000011000010100010000000000
000
 1194 00000D34 BF7EC000        DCD              2_10111111011111101100000000000
000
 1195 00000D38 BE92A000        DCD              2_10111110100100101010000000000
000
 1196 00000D3C C3A98000        DCD              2_11000011101010011000000000000
000
 1197 00000D40 40C28000        DCD              2_01000000110000101000000000000
000
 1198 00000D44 42460000        DCD              2_01000010010001100000000000000
000
 1199 00000D48 42140000        DCD              2_01000010000101000000000000000
000
 1200 00000D4C C4360000        DCD              2_11000100001101100000000000000
000
 1201 00000D50 C1AC0000        DCD              2_11000001101011000000000000000
000
 1202 00000D54 C0458000        DCD              2_11000000010001011000000000000
000
 1203 00000D58 C30A2000        DCD              2_11000011000010100010000000000
000
 1204 00000D5C C1C92000        DCD              2_11000001110010010010000000000
000
 1205 00000D60 C0EF0000        DCD              2_11000000111011110000000000000
000
 1206 00000D64 BF860000        DCD              2_10111111100001100000000000000
000
 1207 00000D68 41DA8000        DCD              2_01000001110110101000000000000
000
 1208 00000D6C 43EB8000        DCD              2_01000011111010111000000000000
000
 1209 00000D70 3FBCE000        DCD              2_00111111101111001110000000000
000
 1210 00000D74 403C0000        DCD              2_01000000001111000000000000000
000
 1211 00000D78 BEE40000        DCD              2_10111110111001000000000000000
000
 1212 00000D7C 3F71C000        DCD              2_00111111011100011100000000000
000
 1213 00000D80 3F060000        DCD              2_00111111000001100000000000000
000
 1214 00000D84 42308000        DCD              2_01000010001100001000000000000
000
 1215 00000D88 C1A3C000        DCD              2_11000001101000111100000000000
000
 1216 00000D8C 3F6A6000        DCD              2_00111111011010100110000000000
000
 1217 00000D90 3FEA8000        DCD              2_00111111111010101000000000000
000
 1218 00000D94 3EA0E000        DCD              2_00111110101000001110000000000
000
 1219 00000D98 44162000        DCD              2_01000100000101100010000000000
000
 1220 00000D9C 40B7A000        DCD              2_01000000101101111010000000000
000



ARM Macro Assembler    Page 41 


 1221 00000DA0 C3E08000        DCD              2_11000011111000001000000000000
000
 1222 00000DA4 42808000        DCD              2_01000010100000001000000000000
000
 1223 00000DA8 BFB30000        DCD              2_10111111101100110000000000000
000
 1224 00000DAC C19B6000        DCD              2_11000001100110110110000000000
000
 1225 00000DB0 BF5AA000        DCD              2_10111111010110101010000000000
000
 1226 00000DB4 3F5C0000        DCD              2_00111111010111000000000000000
000
 1227 00000DB8 BFA58000        DCD              2_10111111101001011000000000000
000
 1228 00000DBC C4624000        DCD              2_11000100011000100100000000000
000
 1229 00000DC0 C1BCA000        DCD              2_11000001101111001010000000000
000
 1230 00000DC4 C2F32000        DCD              2_11000010111100110010000000000
000
 1231 00000DC8 C3748000        DCD              2_11000011011101001000000000000
000
 1232 00000DCC C1188000        DCD              2_11000001000110001000000000000
000
 1233 00000DD0 404F0000        DCD              2_01000000010011110000000000000
000
 1234 00000DD4 411B6000        DCD              2_01000001000110110110000000000
000
 1235 00000DD8 7F800000        DCD              2_01111111100000000000000000000
000
 1236 00000DDC C0B6E000        DCD              2_11000000101101101110000000000
000
 1237 00000DE0 42E18000        DCD              2_01000010111000011000000000000
000
 1238 00000DE4 4070A000        DCD              2_01000000011100001010000000000
000
 1239 00000DE8 43BB2000        DCD              2_01000011101110110010000000000
000
 1240 00000DEC C4756000        DCD              2_11000100011101010110000000000
000
 1241 00000DF0 40126000        DCD              2_01000000000100100110000000000
000
 1242 00000DF4 C4134000        DCD              2_11000100000100110100000000000
000
 1243 00000DF8 00000000        DCD              2_00000000000000000000000000000
000
 1244 00000DFC BE988000        DCD              2_10111110100110001000000000000
000
 1245 00000E00 42596000        DCD              2_01000010010110010110000000000
000
 1246 00000E04 BEB00000        DCD              2_10111110101100000000000000000
000
 1247 00000E08 C2460000        DCD              2_11000010010001100000000000000
000
 1248 00000E0C C3678000        DCD              2_11000011011001111000000000000
000
 1249 00000E10 415FC000        DCD              2_01000001010111111100000000000
000
 1250 00000E14 C23E8000        DCD              2_11000010001111101000000000000



ARM Macro Assembler    Page 42 


000
 1251 00000E18 C4024000        DCD              2_11000100000000100100000000000
000
 1252 00000E1C BE88A000        DCD              2_10111110100010001010000000000
000
 1253 00000E20 C4430000        DCD              2_11000100010000110000000000000
000
 1254 00000E24 C3670000        DCD              2_11000011011001110000000000000
000
 1255 00000E28 C2E6C000        DCD              2_11000010111001101100000000000
000
 1256 00000E2C C1570000        DCD              2_11000001010101110000000000000
000
 1257 00000E30 7F800000        DCD              2_01111111100000000000000000000
000
 1258 00000E34 BED50000        DCD              2_10111110110101010000000000000
000
 1259 00000E38 C22F2000        DCD              2_11000010001011110010000000000
000
 1260 00000E3C C0942000        DCD              2_11000000100101000010000000000
000
 1261 00000E40 BEF96000        DCD              2_10111110111110010110000000000
000
 1262 00000E44 C423E000        DCD              2_11000100001000111110000000000
000
 1263 00000E48 420CC000        DCD              2_01000010000011001100000000000
000
 1264 00000E4C BFD48000        DCD              2_10111111110101001000000000000
000
 1265 00000E50 42B04000        DCD              2_01000010101100000100000000000
000
 1266 00000E54 3EED2000        DCD              2_00111110111011010010000000000
000
 1267 00000E58 BFD54000        DCD              2_10111111110101010100000000000
000
 1268 00000E5C BF820000        DCD              2_10111111100000100000000000000
000
 1269 00000E60 00000000        DCD              2_00000000000000000000000000000
000
 1270 00000E64 41496000        DCD              2_01000001010010010110000000000
000
 1271 00000E68 C2EE8000        DCD              2_11000010111011101000000000000
000
 1272 00000E6C 3F7A4000        DCD              2_00111111011110100100000000000
000
 1273 00000E70 426A8000        DCD              2_01000010011010101000000000000
000
 1274 00000E74 40692000        DCD              2_01000000011010010010000000000
000
 1275 00000E78 44578000        DCD              2_01000100010101111000000000000
000
 1276 00000E7C 43708000        DCD              2_01000011011100001000000000000
000
 1277 00000E80 BF556000        DCD              2_10111111010101010110000000000
000
 1278 00000E84 C3368000        DCD              2_11000011001101101000000000000
000
 1279 00000E88 42428000        DCD              2_01000010010000101000000000000
000



ARM Macro Assembler    Page 43 


 1280 00000E8C 42840000        DCD              2_01000010100001000000000000000
000
 1281 00000E90 C122C000        DCD              2_11000001001000101100000000000
000
 1282 00000E94 40E40000        DCD              2_01000000111001000000000000000
000
 1283 00000E98 BF8E2000        DCD              2_10111111100011100010000000000
000
 1284 00000E9C C0256000        DCD              2_11000000001001010110000000000
000
 1285 00000EA0 3EA76000        DCD              2_00111110101001110110000000000
000
 1286 00000EA4 443A0000        DCD              2_01000100001110100000000000000
000
 1287 00000EA8 C22D4000        DCD              2_11000010001011010100000000000
000
 1288 00000EAC 41704000        DCD              2_01000001011100000100000000000
000
 1289 00000EB0 C1DCA000        DCD              2_11000001110111001010000000000
000
 1290 00000EB4 C3D48000        DCD              2_11000011110101001000000000000
000
 1291 00000EB8 3F2AE000        DCD              2_00111111001010101110000000000
000
 1292 00000EBC 42CA0000        DCD              2_01000010110010100000000000000
000
 1293 00000EC0 BFEA8000        DCD              2_10111111111010101000000000000
000
 1294 00000EC4 C32EE000        DCD              2_11000011001011101110000000000
000
 1295 00000EC8 C45A0000        DCD              2_11000100010110100000000000000
000
 1296 00000ECC 41204000        DCD              2_01000001001000000100000000000
000
 1297 00000ED0 428FC000        DCD              2_01000010100011111100000000000
000
 1298 00000ED4 FF800000        DCD              2_11111111100000000000000000000
000
 1299 00000ED8 3E840000        DCD              2_00111110100001000000000000000
000
 1300 00000EDC 42350000        DCD              2_01000010001101010000000000000
000
 1301 00000EE0 C0A08000        DCD              2_11000000101000001000000000000
000
 1302 00000EE4 3FD20000        DCD              2_00111111110100100000000000000
000
 1303 00000EE8 C1AB8000        DCD              2_11000001101010111000000000000
000
 1304 00000EEC 3FC4C000        DCD              2_00111111110001001100000000000
000
 1305 00000EF0 3EB6C000        DCD              2_00111110101101101100000000000
000
 1306 00000EF4 41720000        DCD              2_01000001011100100000000000000
000
 1307 00000EF8 FF800180        DCD              2_11111111100000000000000110000
000
 1308 00000EFC C1AA0000        DCD              2_11000001101010100000000000000
000
 1309 00000F00 C0E9A000        DCD              2_11000000111010011010000000000



ARM Macro Assembler    Page 44 


000
 1310 00000F04 3FFB8000        DCD              2_00111111111110111000000000000
000
 1311 00000F08 C39DE000        DCD              2_11000011100111011110000000000
000
 1312 00000F0C 42B90000        DCD              2_01000010101110010000000000000
000
 1313 00000F10 41230000        DCD              2_01000001001000110000000000000
000
 1314 00000F14 C209E000        DCD              2_11000010000010011110000000000
000
 1315 00000F18 C1D18000        DCD              2_11000001110100011000000000000
000
 1316 00000F1C C164C000        DCD              2_11000001011001001100000000000
000
 1317 00000F20 436F0000        DCD              2_01000011011011110000000000000
000
 1318 00000F24 C02C8000        DCD              2_11000000001011001000000000000
000
 1319 00000F28 441F0000        DCD              2_01000100000111110000000000000
000
 1320 00000F2C 42A60000        DCD              2_01000010101001100000000000000
000
 1321 00000F30 4058C000        DCD              2_01000000010110001100000000000
000
 1322 00000F34 4042E000        DCD              2_01000000010000101110000000000
000
 1323 00000F38 40B84000        DCD              2_01000000101110000100000000000
000
 1324 00000F3C 420D4000        DCD              2_01000010000011010100000000000
000
 1325 00000F40 BFFE0000        DCD              2_10111111111111100000000000000
000
 1326 00000F44 C30C0000        DCD              2_11000011000011000000000000000
000
 1327 00000F48 BECF0000        DCD              2_10111110110011110000000000000
000
 1328 00000F4C C0620000        DCD              2_11000000011000100000000000000
000
 1329 00000F50 415D0000        DCD              2_01000001010111010000000000000
000
 1330 00000F54 C3DCA000        DCD              2_11000011110111001010000000000
000
 1331 00000F58 43E76000        DCD              2_01000011111001110110000000000
000
 1332 00000F5C C3D6A000        DCD              2_11000011110101101010000000000
000
 1333 00000F60 3FEB2000        DCD              2_00111111111010110010000000000
000
 1334 00000F64 C1940000        DCD              2_11000001100101000000000000000
000
 1335 00000F68 3EAE8000        DCD              2_00111110101011101000000000000
000
 1336 00000F6C C24CE000        DCD              2_11000010010011001110000000000
000
 1337 00000F70 411DA000        DCD              2_01000001000111011010000000000
000
 1338 00000F74 3F718000        DCD              2_00111111011100011000000000000
000



ARM Macro Assembler    Page 45 


 1339 00000F78 41CB6000        DCD              2_01000001110010110110000000000
000
 1340 00000F7C 43A94000        DCD              2_01000011101010010100000000000
000
 1341 00000F80 C0AB6000        DCD              2_11000000101010110110000000000
000
 1342 00000F84 3F964000        DCD              2_00111111100101100100000000000
000
 1343 00000F88 BF898000        DCD              2_10111111100010011000000000000
000
 1344 00000F8C 40448000        DCD              2_01000000010001001000000000000
000
 1345 00000F90 40710000        DCD              2_01000000011100010000000000000
000
 1346 00000F94 3F28E000        DCD              2_00111111001010001110000000000
000
 1347 00000F98 C0658000        DCD              2_11000000011001011000000000000
000
 1348 00000F9C C19EC000        DCD              2_11000001100111101100000000000
000
 1349 00000FA0 426AE000        DCD              2_01000010011010101110000000000
000
 1350 00000FA4 440A4000        DCD              2_01000100000010100100000000000
000
 1351 00000FA8 40F08000        DCD              2_01000000111100001000000000000
000
 1352 00000FAC 43E54000        DCD              2_01000011111001010100000000000
000
 1353 00000FB0 41390000        DCD              2_01000001001110010000000000000
000
 1354 00000FB4 C4610000        DCD              2_11000100011000010000000000000
000
 1355 00000FB8 BEEF8000        DCD              2_10111110111011111000000000000
000
 1356 00000FBC 3F0E0000        DCD              2_00111111000011100000000000000
000
 1357 00000FC0 43F56000        DCD              2_01000011111101010110000000000
000
 1358 00000FC4 40AE8000        DCD              2_01000000101011101000000000000
000
 1359 00000FC8 438CA000        DCD              2_01000011100011001010000000000
000
 1360 00000FCC FF800000        DCD              2_11111111100000000000000000000
000
 1361 00000FD0 42400000        DCD              2_01000010010000000000000000000
000
 1362 00000FD4 C2C7C000        DCD              2_11000010110001111100000000000
000
 1363 00000FD8 41148000        DCD              2_01000001000101001000000000000
000
 1364 00000FDC C15C2000        DCD              2_11000001010111000010000000000
000
 1365 00000FE0 C2DCC000        DCD              2_11000010110111001100000000000
000
 1366 00000FE4 3F2C8000        DCD              2_00111111001011001000000000000
000
 1367 00000FE8 425CE000        DCD              2_01000010010111001110000000000
000
 1368 00000FEC BF92C000        DCD              2_10111111100100101100000000000



ARM Macro Assembler    Page 46 


000
 1369 00000FF0 7F800000        DCD              2_01111111100000000000000000000
000
 1370 00000FF4 C2DB8000        DCD              2_11000010110110111000000000000
000
 1371 00000FF8 42B58000        DCD              2_01000010101101011000000000000
000
 1372 00000FFC BF090000        DCD              2_10111111000010010000000000000
000
 1373 00001000 BE950000        DCD              2_10111110100101010000000000000
000
 1374 00001004 BEC72000        DCD              2_10111110110001110010000000000
000
 1375 00001008 C3A84000        DCD              2_11000011101010000100000000000
000
 1376 0000100C C16D4000        DCD              2_11000001011011010100000000000
000
 1377 00001010 C3496000        DCD              2_11000011010010010110000000000
000
 1378 00001014 43D08000        DCD              2_01000011110100001000000000000
000
 1379 00001018 C0AAC000        DCD              2_11000000101010101100000000000
000
 1380 0000101C 3FA54000        DCD              2_00111111101001010100000000000
000
 1381 00001020 BF040000        DCD              2_10111111000001000000000000000
000
 1382 00001024 BF2AE000        DCD              2_10111111001010101110000000000
000
 1383 00001028 41EF8000        DCD              2_01000001111011111000000000000
000
 1384 0000102C C425E000        DCD              2_11000100001001011110000000000
000
 1385 00001030 4266C000        DCD              2_01000010011001101100000000000
000
 1386 00001034 43558000        DCD              2_01000011010101011000000000000
000
 1387 00001038 41780000        DCD              2_01000001011110000000000000000
000
 1388 0000103C FF800180        DCD              2_11111111100000000000000110000
000
 1389 00001040 C2470000        DCD              2_11000010010001110000000000000
000
 1390 00001044 C1C00000        DCD              2_11000001110000000000000000000
000
 1391 00001048 BF55A000        DCD              2_10111111010101011010000000000
000
 1392 0000104C 4221A000        DCD              2_01000010001000011010000000000
000
 1393 00001050 BF410000        DCD              2_10111111010000010000000000000
000
 1394 00001054 40DB8000        DCD              2_01000000110110111000000000000
000
 1395 00001058 BF360000        DCD              2_10111111001101100000000000000
000
 1396 0000105C C3C04000        DCD              2_11000011110000000100000000000
000
 1397 00001060 404A4000        DCD              2_01000000010010100100000000000
000



ARM Macro Assembler    Page 47 


 1398 00001064 C43B0000        DCD              2_11000100001110110000000000000
000
 1399 00001068 42640000        DCD              2_01000010011001000000000000000
000
 1400 0000106C C2E08000        DCD              2_11000010111000001000000000000
000
 1401 00001070 4364C000        DCD              2_01000011011001001100000000000
000
 1402 00001074 C3A10000        DCD              2_11000011101000010000000000000
000
 1403 00001078 C0620000        DCD              2_11000000011000100000000000000
000
 1404 0000107C C43C0000        DCD              2_11000100001111000000000000000
000
 1405 00001080 4317C000        DCD              2_01000011000101111100000000000
000
 1406 00001084 C38E0000        DCD              2_11000011100011100000000000000
000
 1407 00001088 446BE000        DCD              2_01000100011010111110000000000
000
 1408 0000108C 41478000        DCD              2_01000001010001111000000000000
000
 1409 00001090 44080000        DCD              2_01000100000010000000000000000
000
 1410 00001094 3FEA8000        DCD              2_00111111111010101000000000000
000
 1411 00001098 40690000        DCD              2_01000000011010010000000000000
000
 1412 0000109C C0B84000        DCD              2_11000000101110000100000000000
000
 1413 000010A0 BF094000        DCD              2_10111111000010010100000000000
000
 1414 000010A4 41DA0000        DCD              2_01000001110110100000000000000
000
 1415 000010A8 40B4C000        DCD              2_01000000101101001100000000000
000
 1416 000010AC 41BC0000        DCD              2_01000001101111000000000000000
000
 1417 000010B0 43D54000        DCD              2_01000011110101010100000000000
000
 1418 000010B4 3FACE000        DCD              2_00111111101011001110000000000
000
 1419 000010B8 C4140000        DCD              2_11000100000101000000000000000
000
 1420 000010BC C2864000        DCD              2_11000010100001100100000000000
000
 1421 000010C0 BEA20000        DCD              2_10111110101000100000000000000
000
 1422 000010C4 C0150000        DCD              2_11000000000101010000000000000
000
 1423 000010C8 BF2E8000        DCD              2_10111111001011101000000000000
000
 1424 000010CC BED82000        DCD              2_10111110110110000010000000000
000
 1425 000010D0 BEEEC000        DCD              2_10111110111011101100000000000
000
 1426 000010D4 42662000        DCD              2_01000010011001100010000000000
000
 1427 000010D8 BF89C000        DCD              2_10111111100010011100000000000



ARM Macro Assembler    Page 48 


000
 1428 000010DC C1762000        DCD              2_11000001011101100010000000000
000
 1429 000010E0 C0002000        DCD              2_11000000000000000010000000000
000
 1430 000010E4 C24B0000        DCD              2_11000010010010110000000000000
000
 1431 000010E8 C0ED4000        DCD              2_11000000111011010100000000000
000
 1432 000010EC FF800000        DCD              2_11111111100000000000000000000
000
 1433 000010F0 3F200000        DCD              2_00111111001000000000000000000
000
 1434 000010F4 C45A0000        DCD              2_11000100010110100000000000000
000
 1435 000010F8 C23FC000        DCD              2_11000010001111111100000000000
000
 1436 000010FC 00000000        DCD              2_00000000000000000000000000000
000
 1437 00001100 C0220000        DCD              2_11000000001000100000000000000
000
 1438 00001104 43C4C000        DCD              2_01000011110001001100000000000
000
 1439 00001108 BF474000        DCD              2_10111111010001110100000000000
000
 1440 0000110C C0A18000        DCD              2_11000000101000011000000000000
000
 1441 00001110 C0000000        DCD              2_11000000000000000000000000000
000
 1442 00001114 42A86000        DCD              2_01000010101010000110000000000
000
 1443 00001118 41D42000        DCD              2_01000001110101000010000000000
000
 1444 0000111C 4146C000        DCD              2_01000001010001101100000000000
000
 1445 00001120 C350A000        DCD              2_11000011010100001010000000000
000
 1446 00001124 BFD28000        DCD              2_10111111110100101000000000000
000
 1447 00001128 4404C000        DCD              2_01000100000001001100000000000
000
 1448 0000112C 42D18000        DCD              2_01000010110100011000000000000
000
 1449 00001130 3FD08000        DCD              2_00111111110100001000000000000
000
 1450 00001134 C3830000        DCD              2_11000011100000110000000000000
000
 1451 00001138 435D8000        DCD              2_01000011010111011000000000000
000
 1452 0000113C 43B1C000        DCD              2_01000011101100011100000000000
000
 1453 00001140 C066A000        DCD              2_11000000011001101010000000000
000
 1454 00001144 C1A88000        DCD              2_11000001101010001000000000000
000
 1455 00001148 3F0E0000        DCD              2_00111111000011100000000000000
000
 1456 0000114C BF116000        DCD              2_10111111000100010110000000000
000



ARM Macro Assembler    Page 49 


 1457 00001150 3EC0C000        DCD              2_00111110110000001100000000000
000
 1458 00001154 C1764000        DCD              2_11000001011101100100000000000
000
 1459 00001158 C428A000        DCD              2_11000100001010001010000000000
000
 1460 0000115C 408A8000        DCD              2_01000000100010101000000000000
000
 1461 00001160 C02B0000        DCD              2_11000000001010110000000000000
000
 1462 00001164 BF8E4000        DCD              2_10111111100011100100000000000
000
 1463 00001168 BFBC0000        DCD              2_10111111101111000000000000000
000
 1464 0000116C 3EC70000        DCD              2_00111110110001110000000000000
000
 1465 00001170 BF1D0000        DCD              2_10111111000111010000000000000
000
 1466 00001174 43AE4000        DCD              2_01000011101011100100000000000
000
 1467 00001178 BE8CC000        DCD              2_10111110100011001100000000000
000
 1468 0000117C 44200000        DCD              2_01000100001000000000000000000
000
 1469 00001180 C3F64000        DCD              2_11000011111101100100000000000
000
 1470 00001184 42EE0000        DCD              2_01000010111011100000000000000
000
 1471 00001188 42C04000        DCD              2_01000010110000000100000000000
000
 1472 0000118C C4450000        DCD              2_11000100010001010000000000000
000
 1473 00001190 C0564000        DCD              2_11000000010101100100000000000
000
 1474 00001194 4128C000        DCD              2_01000001001010001100000000000
000
 1475 00001198 41AA4000        DCD              2_01000001101010100100000000000
000
 1476 0000119C 43450000        DCD              2_01000011010001010000000000000
000
 1477 000011A0 C18CC000        DCD              2_11000001100011001100000000000
000
 1478 000011A4 C2D00000        DCD              2_11000010110100000000000000000
000
 1479 000011A8 C05C0000        DCD              2_11000000010111000000000000000
000
 1480 000011AC BEF3A000        DCD              2_10111110111100111010000000000
000
 1481 000011B0 C3D78000        DCD              2_11000011110101111000000000000
000
 1482 000011B4 43758000        DCD              2_01000011011101011000000000000
000
 1483 000011B8 3EE5C000        DCD              2_00111110111001011100000000000
000
 1484 000011BC 43A80000        DCD              2_01000011101010000000000000000
000
 1485 000011C0 C3A68000        DCD              2_11000011101001101000000000000
000
 1486 000011C4 C0B52000        DCD              2_11000000101101010010000000000



ARM Macro Assembler    Page 50 


000
 1487 000011C8 43ED0000        DCD              2_01000011111011010000000000000
000
 1488 000011CC BF3E8000        DCD              2_10111111001111101000000000000
000
 1489 000011D0 436A2000        DCD              2_01000011011010100010000000000
000
 1490 000011D4 BF7A8000        DCD              2_10111111011110101000000000000
000
 1491 000011D8 C3660000        DCD              2_11000011011001100000000000000
000
 1492 000011DC C1560000        DCD              2_11000001010101100000000000000
000
 1493 000011E0 C1300000        DCD              2_11000001001100000000000000000
000
 1494 000011E4 42D10000        DCD              2_01000010110100010000000000000
000
 1495 000011E8 C2A9C000        DCD              2_11000010101010011100000000000
000
 1496 000011EC 41E46000        DCD              2_01000001111001000110000000000
000
 1497 000011F0 BFE8C000        DCD              2_10111111111010001100000000000
000
 1498 000011F4 C28A0000        DCD              2_11000010100010100000000000000
000
 1499 000011F8 411EC000        DCD              2_01000001000111101100000000000
000
 1500 000011FC 414D4000        DCD              2_01000001010011010100000000000
000
 1501 00001200 BFD60000        DCD              2_10111111110101100000000000000
000
 1502 00001204 3FEB0000        DCD              2_00111111111010110000000000000
000
 1503 00001208 420B4000        DCD              2_01000010000010110100000000000
000
 1504 0000120C C42F8000        DCD              2_11000100001011111000000000000
000
 1505 00001210 C169E000        DCD              2_11000001011010011110000000000
000
 1506 00001214 3F1CE000        DCD              2_00111111000111001110000000000
000
 1507 00001218 438FC000        DCD              2_01000011100011111100000000000
000
 1508 0000121C 42D7C000        DCD              2_01000010110101111100000000000
000
 1509 00001220 C0808000        DCD              2_11000000100000001000000000000
000
 1510 00001224 4311C000        DCD              2_01000011000100011100000000000
000
 1511 00001228 BEDA0000        DCD              2_10111110110110100000000000000
000
 1512 0000122C C085C000        DCD              2_11000000100001011100000000000
000
 1513 00001230 C0C5A000        DCD              2_11000000110001011010000000000
000
 1514 00001234 C4188000        DCD              2_11000100000110001000000000000
000
 1515 00001238 4417C000        DCD              2_01000100000101111100000000000
000



ARM Macro Assembler    Page 51 


 1516 0000123C 439E8000        DCD              2_01000011100111101000000000000
000
 1517 00001240 43830000        DCD              2_01000011100000110000000000000
000
 1518 00001244 3F512000        DCD              2_00111111010100010010000000000
000
 1519 00001248 BE874000        DCD              2_10111110100001110100000000000
000
 1520 0000124C C2688000        DCD              2_11000010011010001000000000000
000
 1521 00001250 C38D2000        DCD              2_11000011100011010010000000000
000
 1522 00001254 42A6A000        DCD              2_01000010101001101010000000000
000
 1523 00001258 4296C000        DCD              2_01000010100101101100000000000
000
 1524 0000125C 41710000        DCD              2_01000001011100010000000000000
000
 1525 00001260 40218000        DCD              2_01000000001000011000000000000
000
 1526 00001264 C0E32000        DCD              2_11000000111000110010000000000
000
 1527 00001268 420CC000        DCD              2_01000010000011001100000000000
000
 1528 0000126C C20C8000        DCD              2_11000010000011001000000000000
000
 1529 00001270 42D08000        DCD              2_01000010110100001000000000000
000
 1530 00001274 3F1F6000        DCD              2_00111111000111110110000000000
000
 1531 00001278 44602000        DCD              2_01000100011000000010000000000
000
 1532 0000127C 4105E000        DCD              2_01000001000001011110000000000
000
 1533 00001280 BFF72000        DCD              2_10111111111101110010000000000
000
 1534 00001284 FF800000        DCD              2_11111111100000000000000000000
000
 1535 00001288 42BB6000        DCD              2_01000010101110110110000000000
000
 1536 0000128C C2478000        DCD              2_11000010010001111000000000000
000
 1537 00001290 418D2000        DCD              2_01000001100011010010000000000
000
 1538 00001294 BED08000        DCD              2_10111110110100001000000000000
000
 1539 00001298 425F0000        DCD              2_01000010010111110000000000000
000
 1540 0000129C 3F694000        DCD              2_00111111011010010100000000000
000
 1541 000012A0 43FEC000        DCD              2_01000011111111101100000000000
000
 1542 000012A4 C1052000        DCD              2_11000001000001010010000000000
000
 1543 000012A8 C3650000        DCD              2_11000011011001010000000000000
000
 1544 000012AC 43D34000        DCD              2_01000011110100110100000000000
000
 1545 000012B0 BFDA0000        DCD              2_10111111110110100000000000000



ARM Macro Assembler    Page 52 


000
 1546 000012B4 C2178000        DCD              2_11000010000101111000000000000
000
 1547 000012B8 42B1A000        DCD              2_01000010101100011010000000000
000
 1548 000012BC BEC68000        DCD              2_10111110110001101000000000000
000
 1549 000012C0 41A10000        DCD              2_01000001101000010000000000000
000
 1550 000012C4 BF0F4000        DCD              2_10111111000011110100000000000
000
 1551 000012C8 BFC66000        DCD              2_10111111110001100110000000000
000
 1552 000012CC BED98000        DCD              2_10111110110110011000000000000
000
 1553 000012D0 414B0000        DCD              2_01000001010010110000000000000
000
 1554 000012D4 C19E0000        DCD              2_11000001100111100000000000000
000
 1555 000012D8 C2E7E000        DCD              2_11000010111001111110000000000
000
 1556 000012DC 3ED54000        DCD              2_00111110110101010100000000000
000
 1557 000012E0 3F844000        DCD              2_00111111100001000100000000000
000
 1558 000012E4 40EC0000        DCD              2_01000000111011000000000000000
000
 1559 000012E8 40180000        DCD              2_01000000000110000000000000000
000
 1560 000012EC C1ED0000        DCD              2_11000001111011010000000000000
000
 1561 000012F0 43990000        DCD              2_01000011100110010000000000000
000
 1562 000012F4 3F2D6000        DCD              2_00111111001011010110000000000
000
 1563 000012F8 43BA4000        DCD              2_01000011101110100100000000000
000
 1564 000012FC 3F5A0000        DCD              2_00111111010110100000000000000
000
 1565 00001300 40220000        DCD              2_01000000001000100000000000000
000
 1566 00001304 C30A4000        DCD              2_11000011000010100100000000000
000
 1567 00001308 C0940000        DCD              2_11000000100101000000000000000
000
 1568 0000130C C153E000        DCD              2_11000001010100111110000000000
000
 1569 00001310 3F0F0000        DCD              2_00111111000011110000000000000
000
 1570 00001314 C14A4000        DCD              2_11000001010010100100000000000
000
 1571 00001318 C37DC000        DCD              2_11000011011111011100000000000
000
 1572 0000131C 3F6F0000        DCD              2_00111111011011110000000000000
000
 1573 00001320 BF44C000        DCD              2_10111111010001001100000000000
000
 1574 00001324 3E882000        DCD              2_00111110100010000010000000000
000



ARM Macro Assembler    Page 53 


 1575 00001328 C0656000        DCD              2_11000000011001010110000000000
000
 1576 0000132C 44274000        DCD              2_01000100001001110100000000000
000
 1577 00001330 BE842000        DCD              2_10111110100001000010000000000
000
 1578 00001334 7F800000        DCD              2_01111111100000000000000000000
000
 1579 00001338 411B4000        DCD              2_01000001000110110100000000000
000
 1580 0000133C C32C4000        DCD              2_11000011001011000100000000000
000
 1581 00001340 BEED2000        DCD              2_10111110111011010010000000000
000
 1582 00001344 400E0000        DCD              2_01000000000011100000000000000
000
 1583 00001348 41C78000        DCD              2_01000001110001111000000000000
000
 1584 0000134C 44798000        DCD              2_01000100011110011000000000000
000
 1585 00001350 40B60000        DCD              2_01000000101101100000000000000
000
 1586 00001354 C03A6000        DCD              2_11000000001110100110000000000
000
 1587 00001358 40F10000        DCD              2_01000000111100010000000000000
000
 1588 0000135C 41614000        DCD              2_01000001011000010100000000000
000
 1589 00001360 3F576000        DCD              2_00111111010101110110000000000
000
 1590 00001364 41B50000        DCD              2_01000001101101010000000000000
000
 1591 00001368 C05C4000        DCD              2_11000000010111000100000000000
000
 1592 0000136C C1630000        DCD              2_11000001011000110000000000000
000
 1593 00001370 C176C000        DCD              2_11000001011101101100000000000
000
 1594 00001374 C2300000        DCD              2_11000010001100000000000000000
000
 1595 00001378 3F194000        DCD              2_00111111000110010100000000000
000
 1596 0000137C 4076C000        DCD              2_01000000011101101100000000000
000
 1597 00001380 3F136000        DCD              2_00111111000100110110000000000
000
 1598 00001384 4460A000        DCD              2_01000100011000001010000000000
000
 1599 00001388 3F818000        DCD              2_00111111100000011000000000000
000
 1600 0000138C BFFB8000        DCD              2_10111111111110111000000000000
000
 1601 00001390 C0EAA000        DCD              2_11000000111010101010000000000
000
 1602 00001394 4168E000        DCD              2_01000001011010001110000000000
000
 1603 00001398 C0BB4000        DCD              2_11000000101110110100000000000
000
 1604 0000139C C0E7C000        DCD              2_11000000111001111100000000000



ARM Macro Assembler    Page 54 


000
 1605 000013A0 BF700000        DCD              2_10111111011100000000000000000
000
 1606 000013A4 3F260000        DCD              2_00111111001001100000000000000
000
 1607 000013A8 3F8E0000        DCD              2_00111111100011100000000000000
000
 1608 000013AC 421E6000        DCD              2_01000010000111100110000000000
000
 1609 000013B0 BEF10000        DCD              2_10111110111100010000000000000
000
 1610 000013B4 42B00000        DCD              2_01000010101100000000000000000
000
 1611 000013B8 C21F0000        DCD              2_11000010000111110000000000000
000
 1612 000013BC C0870000        DCD              2_11000000100001110000000000000
000
 1613 000013C0 43CEC000        DCD              2_01000011110011101100000000000
000
 1614 000013C4 3EFD8000        DCD              2_00111110111111011000000000000
000
 1615 000013C8 41A1C000        DCD              2_01000001101000011100000000000
000
 1616 000013CC C3E04000        DCD              2_11000011111000000100000000000
000
 1617 000013D0 403C0000        DCD              2_01000000001111000000000000000
000
 1618 000013D4 C46C2000        DCD              2_11000100011011000010000000000
000
 1619 000013D8 41670000        DCD              2_01000001011001110000000000000
000
 1620 000013DC 439B4000        DCD              2_01000011100110110100000000000
000
 1621 000013E0 BF658000        DCD              2_10111111011001011000000000000
000
 1622 000013E4 42400000        DCD              2_01000010010000000000000000000
000
 1623 000013E8 BEF50000        DCD              2_10111110111101010000000000000
000
 1624 000013EC FF800000        DCD              2_11111111100000000000000000000
000
 1625 000013F0 4349C000        DCD              2_01000011010010011100000000000
000
 1626 000013F4 C0A70000        DCD              2_11000000101001110000000000000
000
 1627 000013F8 43E4C000        DCD              2_01000011111001001100000000000
000
 1628 000013FC 3E8AE000        DCD              2_00111110100010101110000000000
000
 1629 00001400 42048000        DCD              2_01000010000001001000000000000
000
 1630 00001404 C0358000        DCD              2_11000000001101011000000000000
000
 1631 00001408 C3010000        DCD              2_11000011000000010000000000000
000
 1632 0000140C 41D3C000        DCD              2_01000001110100111100000000000
000
 1633 00001410 40938000        DCD              2_01000000100100111000000000000
000



ARM Macro Assembler    Page 55 


 1634 00001414 C0BE8000        DCD              2_11000000101111101000000000000
000
 1635 00001418 BEC28000        DCD              2_10111110110000101000000000000
000
 1636 0000141C BFA40000        DCD              2_10111111101001000000000000000
000
 1637 00001420 3FBE0000        DCD              2_00111111101111100000000000000
000
 1638 00001424 C18F4000        DCD              2_11000001100011110100000000000
000
 1639 00001428 43E30000        DCD              2_01000011111000110000000000000
000
 1640 0000142C BF790000        DCD              2_10111111011110010000000000000
000
 1641 00001430 3EA5C000        DCD              2_00111110101001011100000000000
000
 1642 00001434 40A36000        DCD              2_01000000101000110110000000000
000
 1643 00001438 41804000        DCD              2_01000001100000000100000000000
000
 1644 0000143C C1D48000        DCD              2_11000001110101001000000000000
000
 1645 00001440 431C0000        DCD              2_01000011000111000000000000000
000
 1646 00001444 40BDC000        DCD              2_01000000101111011100000000000
000
 1647 00001448 C0200000        DCD              2_11000000001000000000000000000
000
 1648 0000144C 44472000        DCD              2_01000100010001110010000000000
000
 1649 00001450 BEA70000        DCD              2_10111110101001110000000000000
000
 1650 00001454 4309E000        DCD              2_01000011000010011110000000000
000
 1651 00001458 C0730000        DCD              2_11000000011100110000000000000
000
 1652 0000145C BF3FE000        DCD              2_10111111001111111110000000000
000
 1653 00001460 C3D66000        DCD              2_11000011110101100110000000000
000
 1654 00001464 41B60000        DCD              2_01000001101101100000000000000
000
 1655 00001468 43F48000        DCD              2_01000011111101001000000000000
000
 1656 0000146C 41F14000        DCD              2_01000001111100010100000000000
000
 1657 00001470 3F922000        DCD              2_00111111100100100010000000000
000
 1658 00001474 42D60000        DCD              2_01000010110101100000000000000
000
 1659 00001478 403F8000        DCD              2_01000000001111111000000000000
000
 1660 0000147C 40864000        DCD              2_01000000100001100100000000000
000
 1661 00001480 3FDC0000        DCD              2_00111111110111000000000000000
000
 1662 00001484 C24F8000        DCD              2_11000010010011111000000000000
000
 1663 00001488 C2846000        DCD              2_11000010100001000110000000000



ARM Macro Assembler    Page 56 


000
 1664 0000148C 42ED4000        DCD              2_01000010111011010100000000000
000
 1665 00001490 3F5AC000        DCD              2_00111111010110101100000000000
000
 1666 00001494 41434000        DCD              2_01000001010000110100000000000
000
 1667 00001498 42EB6000        DCD              2_01000010111010110110000000000
000
 1668 0000149C 43CC8000        DCD              2_01000011110011001000000000000
000
 1669 000014A0 40230000        DCD              2_01000000001000110000000000000
000
 1670 000014A4 C29E0000        DCD              2_11000010100111100000000000000
000
 1671 000014A8 3FA60000        DCD              2_00111111101001100000000000000
000
 1672 000014AC 44288000        DCD              2_01000100001010001000000000000
000
 1673 000014B0 C365C000        DCD              2_11000011011001011100000000000
000
 1674 000014B4 3EB84000        DCD              2_00111110101110000100000000000
000
 1675 000014B8 435F8000        DCD              2_01000011010111111000000000000
000
 1676 000014BC C069C000        DCD              2_11000000011010011100000000000
000
 1677 000014C0 40D24000        DCD              2_01000000110100100100000000000
000
 1678 000014C4 423A8000        DCD              2_01000010001110101000000000000
000
 1679 000014C8 42F3A000        DCD              2_01000010111100111010000000000
000
 1680 000014CC C474A000        DCD              2_11000100011101001010000000000
000
 1681 000014D0 C10AA000        DCD              2_11000001000010101010000000000
000
 1682 000014D4 43B80000        DCD              2_01000011101110000000000000000
000
 1683 000014D8 41C6A000        DCD              2_01000001110001101010000000000
000
 1684 000014DC 3FD90000        DCD              2_00111111110110010000000000000
000
 1685 000014E0 40C94000        DCD              2_01000000110010010100000000000
000
 1686 000014E4 42EEC000        DCD              2_01000010111011101100000000000
000
 1687 000014E8 C173C000        DCD              2_11000001011100111100000000000
000
 1688 000014EC FF800180        DCD              2_11111111100000000000000110000
000
 1689 000014F0 40642000        DCD              2_01000000011001000010000000000
000
 1690 000014F4 445DC000        DCD              2_01000100010111011100000000000
000
 1691 000014F8 BF656000        DCD              2_10111111011001010110000000000
000
 1692 000014FC 41CEE000        DCD              2_01000001110011101110000000000
000



ARM Macro Assembler    Page 57 


 1693 00001500 FF800180        DCD              2_11111111100000000000000110000
000
 1694 00001504 3F660000        DCD              2_00111111011001100000000000000
000
 1695 00001508 C08C0000        DCD              2_11000000100011000000000000000
000
 1696 0000150C 43EB4000        DCD              2_01000011111010110100000000000
000
 1697 00001510 42004000        DCD              2_01000010000000000100000000000
000
 1698 00001514 41E30000        DCD              2_01000001111000110000000000000
000
 1699 00001518 C31CE000        DCD              2_11000011000111001110000000000
000
 1700 0000151C 00000000        DCD              2_00000000000000000000000000000
000
 1701 00001520 C30D0000        DCD              2_11000011000011010000000000000
000
 1702 00001524 43CCC000        DCD              2_01000011110011001100000000000
000
 1703 00001528 C2444000        DCD              2_11000010010001000100000000000
000
 1704 0000152C C034C000        DCD              2_11000000001101001100000000000
000
 1705 00001530 C42F0000        DCD              2_11000100001011110000000000000
000
 1706 00001534 BFB08000        DCD              2_10111111101100001000000000000
000
 1707 00001538 BF610000        DCD              2_10111111011000010000000000000
000
 1708 0000153C C0054000        DCD              2_11000000000001010100000000000
000
 1709 00001540 BF6DC000        DCD              2_10111111011011011100000000000
000
 1710 00001544 BEA26000        DCD              2_10111110101000100110000000000
000
 1711 00001548 43ED4000        DCD              2_01000011111011010100000000000
000
 1712 0000154C 41618000        DCD              2_01000001011000011000000000000
000
 1713 00001550 C02C8000        DCD              2_11000000001011001000000000000
000
 1714 00001554 C1230000        DCD              2_11000001001000110000000000000
000
 1715 00001558 C3370000        DCD              2_11000011001101110000000000000
000
 1716 0000155C 42758000        DCD              2_01000010011101011000000000000
000
 1717 00001560 421A0000        DCD              2_01000010000110100000000000000
000
 1718 00001564 41E38000        DCD              2_01000001111000111000000000000
000
 1719 00001568 C0B7A000        DCD              2_11000000101101111010000000000
000
 1720 0000156C 43ACC000        DCD              2_01000011101011001100000000000
000
 1721 00001570 412C0000        DCD              2_01000001001011000000000000000
000
 1722 00001574 3EF4C000        DCD              2_00111110111101001100000000000



ARM Macro Assembler    Page 58 


000
 1723 00001578 44610000        DCD              2_01000100011000010000000000000
000
 1724 0000157C 446E0000        DCD              2_01000100011011100000000000000
000
 1725 00001580 C2510000        DCD              2_11000010010100010000000000000
000
 1726 00001584 416A0000        DCD              2_01000001011010100000000000000
000
 1727 00001588 3EC90000        DCD              2_00111110110010010000000000000
000
 1728 0000158C C38AC000        DCD              2_11000011100010101100000000000
000
 1729 00001590 C1054000        DCD              2_11000001000001010100000000000
000
 1730 00001594 C31E8000        DCD              2_11000011000111101000000000000
000
 1731 00001598 404C0000        DCD              2_01000000010011000000000000000
000
 1732 0000159C 7F800000        DCD              2_01111111100000000000000000000
000
 1733 000015A0 C0EEA000        DCD              2_11000000111011101010000000000
000
 1734 000015A4 403AC000        DCD              2_01000000001110101100000000000
000
 1735 000015A8 41668000        DCD              2_01000001011001101000000000000
000
 1736 000015AC C1572000        DCD              2_11000001010101110010000000000
000
 1737 000015B0 3F9A8000        DCD              2_00111111100110101000000000000
000
 1738 000015B4 3FDF8000        DCD              2_00111111110111111000000000000
000
 1739 000015B8 43A68000        DCD              2_01000011101001101000000000000
000
 1740 000015BC 3FFF8000        DCD              2_00111111111111111000000000000
000
 1741 000015C0 43E48000        DCD              2_01000011111001001000000000000
000
 1742 000015C4 C2F04000        DCD              2_11000010111100000100000000000
000
 1743 000015C8 C1718000        DCD              2_11000001011100011000000000000
000
 1744 000015CC 42168000        DCD              2_01000010000101101000000000000
000
 1745 000015D0 BFEE2000        DCD              2_10111111111011100010000000000
000
 1746 000015D4 C0F38000        DCD              2_11000000111100111000000000000
000
 1747 000015D8 C3002000        DCD              2_11000011000000000010000000000
000
 1748 000015DC 4189A000        DCD              2_01000001100010011010000000000
000
 1749 000015E0 3FE80000        DCD              2_00111111111010000000000000000
000
 1750 000015E4 C1002000        DCD              2_11000001000000000010000000000
000
 1751 000015E8 3F10C000        DCD              2_00111111000100001100000000000
000



ARM Macro Assembler    Page 59 


 1752 000015EC 43880000        DCD              2_01000011100010000000000000000
000
 1753 000015F0 42EFC000        DCD              2_01000010111011111100000000000
000
 1754 000015F4 C0B70000        DCD              2_11000000101101110000000000000
000
 1755 000015F8 42444000        DCD              2_01000010010001000100000000000
000
 1756 000015FC 444C4000        DCD              2_01000100010011000100000000000
000
 1757 00001600 C11B8000        DCD              2_11000001000110111000000000000
000
 1758 00001604 BF460000        DCD              2_10111111010001100000000000000
000
 1759 00001608 C39A0000        DCD              2_11000011100110100000000000000
000
 1760 0000160C 434F4000        DCD              2_01000011010011110100000000000
000
 1761 00001610 42B54000        DCD              2_01000010101101010100000000000
000
 1762 00001614 4002C000        DCD              2_01000000000000101100000000000
000
 1763 00001618 3F2F6000        DCD              2_00111111001011110110000000000
000
 1764 0000161C 3EDDC000        DCD              2_00111110110111011100000000000
000
 1765 00001620 C0F20000        DCD              2_11000000111100100000000000000
000
 1766 00001624 43914000        DCD              2_01000011100100010100000000000
000
 1767 00001628 40FE8000        DCD              2_01000000111111101000000000000
000
 1768 0000162C C00E4000        DCD              2_11000000000011100100000000000
000
 1769 00001630 413E0000        DCD              2_01000001001111100000000000000
000
 1770 00001634 43D92000        DCD              2_01000011110110010010000000000
000
 1771 00001638 C2CD8000        DCD              2_11000010110011011000000000000
000
 1772 0000163C C4522000        DCD              2_11000100010100100010000000000
000
 1773 00001640 C29D0000        DCD              2_11000010100111010000000000000
000
 1774 00001644 C254C000        DCD              2_11000010010101001100000000000
000
 1775 00001648 BF644000        DCD              2_10111111011001000100000000000
000
 1776 0000164C C0720000        DCD              2_11000000011100100000000000000
000
 1777 00001650 3F1C0000        DCD              2_00111111000111000000000000000
000
 1778 00001654 41434000        DCD              2_01000001010000110100000000000
000
 1779 00001658 43942000        DCD              2_01000011100101000010000000000
000
 1780 0000165C 42D70000        DCD              2_01000010110101110000000000000
000
 1781 00001660 BFE08000        DCD              2_10111111111000001000000000000



ARM Macro Assembler    Page 60 


000
 1782 00001664 42BDC000        DCD              2_01000010101111011100000000000
000
 1783 00001668 BFD98000        DCD              2_10111111110110011000000000000
000
 1784 0000166C 431B0000        DCD              2_01000011000110110000000000000
000
 1785 00001670 40CCA000        DCD              2_01000000110011001010000000000
000
 1786 00001674 40630000        DCD              2_01000000011000110000000000000
000
 1787 00001678 C0520000        DCD              2_11000000010100100000000000000
000
 1788 0000167C 43D96000        DCD              2_01000011110110010110000000000
000
 1789 00001680 406A4000        DCD              2_01000000011010100100000000000
000
 1790 00001684 404EE000        DCD              2_01000000010011101110000000000
000
 1791 00001688 C2A3C000        DCD              2_11000010101000111100000000000
000
 1792 0000168C 41A98000        DCD              2_01000001101010011000000000000
000
 1793 00001690 C2F08000        DCD              2_11000010111100001000000000000
000
 1794 00001694 42544000        DCD              2_01000010010101000100000000000
000
 1795 00001698 42EEC000        DCD              2_01000010111011101100000000000
000
 1796 0000169C 4269E000        DCD              2_01000010011010011110000000000
000
 1797 000016A0 3F4A0000        DCD              2_00111111010010100000000000000
000
 1798 000016A4 42ACA000        DCD              2_01000010101011001010000000000
000
 1799 000016A8 444B2000        DCD              2_01000100010010110010000000000
000
 1800 000016AC 42628000        DCD              2_01000010011000101000000000000
000
 1801 000016B0 410E0000        DCD              2_01000001000011100000000000000
000
 1802 000016B4 C2C4A000        DCD              2_11000010110001001010000000000
000
 1803 000016B8 3FEDC000        DCD              2_00111111111011011100000000000
000
 1804 000016BC 4044A000        DCD              2_01000000010001001010000000000
000
 1805 000016C0 C1BAE000        DCD              2_11000001101110101110000000000
000
 1806 000016C4 41496000        DCD              2_01000001010010010110000000000
000
 1807 000016C8 C1C2A000        DCD              2_11000001110000101010000000000
000
 1808 000016CC C1C08000        DCD              2_11000001110000001000000000000
000
 1809 000016D0 BF4C4000        DCD              2_10111111010011000100000000000
000
 1810 000016D4 C327C000        DCD              2_11000011001001111100000000000
000



ARM Macro Assembler    Page 61 


 1811 000016D8 42EBC000        DCD              2_01000010111010111100000000000
000
 1812 000016DC C3352000        DCD              2_11000011001101010010000000000
000
 1813 000016E0 442B0000        DCD              2_01000100001010110000000000000
000
 1814 000016E4 415D0000        DCD              2_01000001010111010000000000000
000
 1815 000016E8 427B0000        DCD              2_01000010011110110000000000000
000
 1816 000016EC BFFA0000        DCD              2_10111111111110100000000000000
000
 1817 000016F0 BE8A0000        DCD              2_10111110100010100000000000000
000
 1818 000016F4 C3500000        DCD              2_11000011010100000000000000000
000
 1819 000016F8 C4470000        DCD              2_11000100010001110000000000000
000
 1820 000016FC 44284000        DCD              2_01000100001010000100000000000
000
 1821 00001700 41D34000        DCD              2_01000001110100110100000000000
000
 1822 00001704 40996000        DCD              2_01000000100110010110000000000
000
 1823 00001708 423E8000        DCD              2_01000010001111101000000000000
000
 1824 0000170C C3DF4000        DCD              2_11000011110111110100000000000
000
 1825 00001710 BF378000        DCD              2_10111111001101111000000000000
000
 1826 00001714 40356000        DCD              2_01000000001101010110000000000
000
 1827 00001718 42B54000        DCD              2_01000010101101010100000000000
000
 1828 0000171C C32AC000        DCD              2_11000011001010101100000000000
000
 1829 00001720 C18BC000        DCD              2_11000001100010111100000000000
000
 1830 00001724 C2934000        DCD              2_11000010100100110100000000000
000
 1831 00001728 446AC000        DCD              2_01000100011010101100000000000
000
 1832 0000172C 43A2E000        DCD              2_01000011101000101110000000000
000
 1833 00001730 3F828000        DCD              2_00111111100000101000000000000
000
 1834 00001734 C1442000        DCD              2_11000001010001000010000000000
000
 1835 00001738 41F04000        DCD              2_01000001111100000100000000000
000
 1836 0000173C 41D3C000        DCD              2_01000001110100111100000000000
000
 1837 00001740 43B7A000        DCD              2_01000011101101111010000000000
000
 1838 00001744 BF3C0000        DCD              2_10111111001111000000000000000
000
 1839 00001748 42628000        DCD              2_01000010011000101000000000000
000
 1840 0000174C BEC42000        DCD              2_10111110110001000010000000000



ARM Macro Assembler    Page 62 


000
 1841 00001750 C3BAC000        DCD              2_11000011101110101100000000000
000
 1842 00001754 BEDE0000        DCD              2_10111110110111100000000000000
000
 1843 00001758 43BA0000        DCD              2_01000011101110100000000000000
000
 1844 0000175C C0A7C000        DCD              2_11000000101001111100000000000
000
 1845 00001760 C13BC000        DCD              2_11000001001110111100000000000
000
 1846 00001764 FF800000        DCD              2_11111111100000000000000000000
000
 1847 00001768 C1E38000        DCD              2_11000001111000111000000000000
000
 1848 0000176C BF8A8000        DCD              2_10111111100010101000000000000
000
 1849 00001770 C35A0000        DCD              2_11000011010110100000000000000
000
 1850 00001774 4370C000        DCD              2_01000011011100001100000000000
000
 1851 00001778 BF184000        DCD              2_10111111000110000100000000000
000
 1852 0000177C 3EDE0000        DCD              2_00111110110111100000000000000
000
 1853 00001780 C3CF6000        DCD              2_11000011110011110110000000000
000
 1854 00001784 40C3C000        DCD              2_01000000110000111100000000000
000
 1855 00001788 44188000        DCD              2_01000100000110001000000000000
000
 1856 0000178C 43110000        DCD              2_01000011000100010000000000000
000
 1857 00001790 C3F60000        DCD              2_11000011111101100000000000000
000
 1858 00001794 3F4BC000        DCD              2_00111111010010111100000000000
000
 1859 00001798 4174A000        DCD              2_01000001011101001010000000000
000
 1860 0000179C 41E26000        DCD              2_01000001111000100110000000000
000
 1861 000017A0 42FB8000        DCD              2_01000010111110111000000000000
000
 1862 000017A4 40AE0000        DCD              2_01000000101011100000000000000
000
 1863 000017A8 42860000        DCD              2_01000010100001100000000000000
000
 1864 000017AC 42C38000        DCD              2_01000010110000111000000000000
000
 1865 000017B0 40538000        DCD              2_01000000010100111000000000000
000
 1866 000017B4 C37C0000        DCD              2_11000011011111000000000000000
000
 1867 000017B8 C3F72000        DCD              2_11000011111101110010000000000
000
 1868 000017BC 3EFE0000        DCD              2_00111110111111100000000000000
000
 1869 000017C0 41A20000        DCD              2_01000001101000100000000000000
000



ARM Macro Assembler    Page 63 


 1870 000017C4 3EE90000        DCD              2_00111110111010010000000000000
000
 1871 000017C8 C14C0000        DCD              2_11000001010011000000000000000
000
 1872 000017CC C0FA0000        DCD              2_11000000111110100000000000000
000
 1873 000017D0 BEAD0000        DCD              2_10111110101011010000000000000
000
 1874 000017D4 3F330000        DCD              2_00111111001100110000000000000
000
 1875 000017D8 41780000        DCD              2_01000001011110000000000000000
000
 1876 000017DC 44360000        DCD              2_01000100001101100000000000000
000
 1877 000017E0 C01D8000        DCD              2_11000000000111011000000000000
000
 1878 000017E4 C09BE000        DCD              2_11000000100110111110000000000
000
 1879 000017E8 C1100000        DCD              2_11000001000100000000000000000
000
 1880 000017EC 41C50000        DCD              2_01000001110001010000000000000
000
 1881 000017F0 C021A000        DCD              2_11000000001000011010000000000
000
 1882 000017F4 C0FE0000        DCD              2_11000000111111100000000000000
000
 1883 000017F8 42182000        DCD              2_01000010000110000010000000000
000
 1884 000017FC 3FF92000        DCD              2_00111111111110010010000000000
000
 1885 00001800 43E18000        DCD              2_01000011111000011000000000000
000
 1886 00001804 C3C74000        DCD              2_11000011110001110100000000000
000
 1887 00001808 44450000        DCD              2_01000100010001010000000000000
000
 1888 0000180C C03BC000        DCD              2_11000000001110111100000000000
000
 1889 00001810 C2E50000        DCD              2_11000010111001010000000000000
000
 1890 00001814 3F2A0000        DCD              2_00111111001010100000000000000
000
 1891 00001818 44116000        DCD              2_01000100000100010110000000000
000
 1892 0000181C BFA80000        DCD              2_10111111101010000000000000000
000
 1893 00001820 43EB0000        DCD              2_01000011111010110000000000000
000
 1894 00001824 BFA10000        DCD              2_10111111101000010000000000000
000
 1895 00001828 41E08000        DCD              2_01000001111000001000000000000
000
 1896 0000182C C0808000        DCD              2_11000000100000001000000000000
000
 1897 00001830 BFA08000        DCD              2_10111111101000001000000000000
000
 1898 00001834 42AEC000        DCD              2_01000010101011101100000000000
000
 1899 00001838 BF868000        DCD              2_10111111100001101000000000000



ARM Macro Assembler    Page 64 


000
 1900 0000183C 3EE0E000        DCD              2_00111110111000001110000000000
000
 1901 00001840 C2490000        DCD              2_11000010010010010000000000000
000
 1902 00001844 43F50000        DCD              2_01000011111101010000000000000
000
 1903 00001848 40F8C000        DCD              2_01000000111110001100000000000
000
 1904 0000184C C4558000        DCD              2_11000100010101011000000000000
000
 1905 00001850 BFD62000        DCD              2_10111111110101100010000000000
000
 1906 00001854 3F240000        DCD              2_00111111001001000000000000000
000
 1907 00001858 3F71A000        DCD              2_00111111011100011010000000000
000
 1908 0000185C BECA0000        DCD              2_10111110110010100000000000000
000
 1909 00001860 3FCC8000        DCD              2_00111111110011001000000000000
000
 1910 00001864 43970000        DCD              2_01000011100101110000000000000
000
 1911 00001868 BF07A000        DCD              2_10111111000001111010000000000
000
 1912 0000186C C00E0000        DCD              2_11000000000011100000000000000
000
 1913 00001870 00000000        DCD              2_00000000000000000000000000000
000
 1914 00001874 BF850000        DCD              2_10111111100001010000000000000
000
 1915 00001878 3FCE8000        DCD              2_00111111110011101000000000000
000
 1916 0000187C 3E8FA000        DCD              2_00111110100011111010000000000
000
 1917 00001880 C440C000        DCD              2_11000100010000001100000000000
000
 1918 00001884 3E8B8000        DCD              2_00111110100010111000000000000
000
 1919 00001888 40E58000        DCD              2_01000000111001011000000000000
000
 1920 0000188C 3E880000        DCD              2_00111110100010000000000000000
000
 1921 00001890 C0054000        DCD              2_11000000000001010100000000000
000
 1922 00001894 41474000        DCD              2_01000001010001110100000000000
000
 1923 00001898 432C8000        DCD              2_01000011001011001000000000000
000
 1924 0000189C C09F2000        DCD              2_11000000100111110010000000000
000
 1925 000018A0 43EF8000        DCD              2_01000011111011111000000000000
000
 1926 000018A4 C4248000        DCD              2_11000100001001001000000000000
000
 1927 000018A8 C08B0000        DCD              2_11000000100010110000000000000
000
 1928 000018AC C2190000        DCD              2_11000010000110010000000000000
000



ARM Macro Assembler    Page 65 


 1929 000018B0 3F682000        DCD              2_00111111011010000010000000000
000
 1930 000018B4 C371C000        DCD              2_11000011011100011100000000000
000
 1931 000018B8 C0F1E000        DCD              2_11000000111100011110000000000
000
 1932 000018BC 4076C000        DCD              2_01000000011101101100000000000
000
 1933 000018C0 BECE0000        DCD              2_10111110110011100000000000000
000
 1934 000018C4 40018000        DCD              2_01000000000000011000000000000
000
 1935 000018C8 C4418000        DCD              2_11000100010000011000000000000
000
 1936 000018CC 3F716000        DCD              2_00111111011100010110000000000
000
 1937 000018D0 C3EB0000        DCD              2_11000011111010110000000000000
000
 1938 000018D4 BEAAC000        DCD              2_10111110101010101100000000000
000
 1939 000018D8 C39A0000        DCD              2_11000011100110100000000000000
000
 1940 000018DC C44AC000        DCD              2_11000100010010101100000000000
000
 1941 000018E0 41C42000        DCD              2_01000001110001000010000000000
000
 1942 000018E4 3FCBE000        DCD              2_00111111110010111110000000000
000
 1943 000018E8 3FCB4000        DCD              2_00111111110010110100000000000
000
 1944 000018EC 42946000        DCD              2_01000010100101000110000000000
000
 1945 000018F0 BF560000        DCD              2_10111111010101100000000000000
000
 1946 000018F4 40660000        DCD              2_01000000011001100000000000000
000
 1947 000018F8 41A80000        DCD              2_01000001101010000000000000000
000
 1948 000018FC C3608000        DCD              2_11000011011000001000000000000
000
 1949 00001900 4138A000        DCD              2_01000001001110001010000000000
000
 1950 00001904 C0EFE000        DCD              2_11000000111011111110000000000
000
 1951 00001908 C39E2000        DCD              2_11000011100111100010000000000
000
 1952 0000190C 42700000        DCD              2_01000010011100000000000000000
000
 1953 00001910 423E0000        DCD              2_01000010001111100000000000000
000
 1954 00001914 4221C000        DCD              2_01000010001000011100000000000
000
 1955 00001918 BE942000        DCD              2_10111110100101000010000000000
000
 1956 0000191C BF22A000        DCD              2_10111111001000101010000000000
000
 1957 00001920 3FA3E000        DCD              2_00111111101000111110000000000
000
 1958 00001924 C0144000        DCD              2_11000000000101000100000000000



ARM Macro Assembler    Page 66 


000
 1959 00001928 C0198000        DCD              2_11000000000110011000000000000
000
 1960 0000192C 43070000        DCD              2_01000011000001110000000000000
000
 1961 00001930 C2860000        DCD              2_11000010100001100000000000000
000
 1962 00001934 C34FA000        DCD              2_11000011010011111010000000000
000
 1963 00001938 C3F70000        DCD              2_11000011111101110000000000000
000
 1964 0000193C C1510000        DCD              2_11000001010100010000000000000
000
 1965 00001940 4006C000        DCD              2_01000000000001101100000000000
000
 1966 00001944 C18B4000        DCD              2_11000001100010110100000000000
000
 1967 00001948 C2CC0000        DCD              2_11000010110011000000000000000
000
 1968 0000194C C1A84000        DCD              2_11000001101010000100000000000
000
 1969 00001950 BF9DC000        DCD              2_10111111100111011100000000000
000
 1970 00001954 C1974000        DCD              2_11000001100101110100000000000
000
 1971 00001958 C02C6000        DCD              2_11000000001011000110000000000
000
 1972 0000195C 418BC000        DCD              2_01000001100010111100000000000
000
 1973 00001960 C1E88000        DCD              2_11000001111010001000000000000
000
 1974 00001964 436FC000        DCD              2_01000011011011111100000000000
000
 1975 00001968 440FC000        DCD              2_01000100000011111100000000000
000
 1976 0000196C C438C000        DCD              2_11000100001110001100000000000
000
 1977 00001970 3FEDC000        DCD              2_00111111111011011100000000000
000
 1978 00001974 41B44000        DCD              2_01000001101101000100000000000
000
 1979 00001978 FF800000        DCD              2_11111111100000000000000000000
000
 1980 0000197C 3EFF8000        DCD              2_00111110111111111000000000000
000
 1981 00001980 42A32000        DCD              2_01000010101000110010000000000
000
 1982 00001984 C1A00000        DCD              2_11000001101000000000000000000
000
 1983 00001988 4302E000        DCD              2_01000011000000101110000000000
000
 1984 0000198C BF3AE000        DCD              2_10111111001110101110000000000
000
 1985 00001990 423FE000        DCD              2_01000010001111111110000000000
000
 1986 00001994 C124C000        DCD              2_11000001001001001100000000000
000
 1987 00001998 C2F54000        DCD              2_11000010111101010100000000000
000



ARM Macro Assembler    Page 67 


 1988 0000199C 41678000        DCD              2_01000001011001111000000000000
000
 1989 000019A0 4278E000        DCD              2_01000010011110001110000000000
000
 1990 000019A4 BF426000        DCD              2_10111111010000100110000000000
000
 1991 000019A8 C479C000        DCD              2_11000100011110011100000000000
000
 1992 000019AC C1F0C000        DCD              2_11000001111100001100000000000
000
 1993 000019B0 BF3C8000        DCD              2_10111111001111001000000000000
000
 1994 000019B4 C2890000        DCD              2_11000010100010010000000000000
000
 1995 000019B8 415A0000        DCD              2_01000001010110100000000000000
000
 1996 000019BC BF73A000        DCD              2_10111111011100111010000000000
000
 1997 000019C0 43C00000        DCD              2_01000011110000000000000000000
000
 1998 000019C4 40B5E000        DCD              2_01000000101101011110000000000
000
 1999 000019C8 BF24C000        DCD              2_10111111001001001100000000000
000
 2000 000019CC C1444000        DCD              2_11000001010001000100000000000
000
 2001 000019D0 3F84E000        DCD              2_00111111100001001110000000000
000
 2002 000019D4 C0300000        DCD              2_11000000001100000000000000000
000
 2003 000019D8 C1790000        DCD              2_11000001011110010000000000000
000
 2004 000019DC 4437C000        DCD              2_01000100001101111100000000000
000
 2005 000019E0 BEC4E000        DCD              2_10111110110001001110000000000
000
 2006 000019E4 C0360000        DCD              2_11000000001101100000000000000
000
 2007 000019E8 41E00000        DCD              2_01000001111000000000000000000
000
 2008 000019EC 417C0000        DCD              2_01000001011111000000000000000
000
 2009 000019F0 C3E9C000        DCD              2_11000011111010011100000000000
000
 2010 000019F4 40840000        DCD              2_01000000100001000000000000000
000
 2011 000019F8 BE914000        DCD              2_10111110100100010100000000000
000
 2012 000019FC C1CB0000        DCD              2_11000001110010110000000000000
000
 2013 00001A00 3EC46000        DCD              2_00111110110001000110000000000
000
 2014 00001A04 42E48000        DCD              2_01000010111001001000000000000
000
 2015 00001A08 C2AC0000        DCD              2_11000010101011000000000000000
000
 2016 00001A0C 3FB52000        DCD              2_00111111101101010010000000000
000
 2017 00001A10 42B46000        DCD              2_01000010101101000110000000000



ARM Macro Assembler    Page 68 


000
 2018 00001A14 3EE7A000        DCD              2_00111110111001111010000000000
000
 2019 00001A18 40AA8000        DCD              2_01000000101010101000000000000
000
 2020 00001A1C 408FA000        DCD              2_01000000100011111010000000000
000
 2021 00001A20 43550000        DCD              2_01000011010101010000000000000
000
 2022 00001A24 C3D92000        DCD              2_11000011110110010010000000000
000
 2023 00001A28 4211C000        DCD              2_01000010000100011100000000000
000
 2024 00001A2C C191A000        DCD              2_11000001100100011010000000000
000
 2025 00001A30 C1E72000        DCD              2_11000001111001110010000000000
000
 2026 00001A34 C1264000        DCD              2_11000001001001100100000000000
000
 2027 00001A38 3F578000        DCD              2_00111111010101111000000000000
000
 2028 00001A3C 41628000        DCD              2_01000001011000101000000000000
000
 2029 00001A40 C1C08000        DCD              2_11000001110000001000000000000
000
 2030 00001A44 C1410000        DCD              2_11000001010000010000000000000
000
 2031 00001A48 C02C0000        DCD              2_11000000001011000000000000000
000
 2032 00001A4C 420CA000        DCD              2_01000010000011001010000000000
000
 2033 00001A50 42F30000        DCD              2_01000010111100110000000000000
000
 2034 00001A54 BF818000        DCD              2_10111111100000011000000000000
000
 2035 00001A58 40B82000        DCD              2_01000000101110000010000000000
000
 2036 00001A5C 406E0000        DCD              2_01000000011011100000000000000
000
 2037 00001A60 C3990000        DCD              2_11000011100110010000000000000
000
 2038 00001A64 C06E4000        DCD              2_11000000011011100100000000000
000
 2039 00001A68 C3060000        DCD              2_11000011000001100000000000000
000
 2040 00001A6C 41CBC000        DCD              2_01000001110010111100000000000
000
 2041 00001A70 C0B0A000        DCD              2_11000000101100001010000000000
000
 2042 00001A74 C11F2000        DCD              2_11000001000111110010000000000
000
 2043 00001A78 C1FE0000        DCD              2_11000001111111100000000000000
000
 2044 00001A7C BFBD8000        DCD              2_10111111101111011000000000000
000
 2045 00001A80 C2F20000        DCD              2_11000010111100100000000000000
000
 2046 00001A84 BEEC8000        DCD              2_10111110111011001000000000000
000



ARM Macro Assembler    Page 69 


 2047 00001A88 C0920000        DCD              2_11000000100100100000000000000
000
 2048 00001A8C 3F5CE000        DCD              2_00111111010111001110000000000
000
 2049 00001A90 41A98000        DCD              2_01000001101010011000000000000
000
 2050 00001A94 C4350000        DCD              2_11000100001101010000000000000
000
 2051 00001A98 C1B88000        DCD              2_11000001101110001000000000000
000
 2052 00001A9C C1236000        DCD              2_11000001001000110110000000000
000
 2053 00001AA0 C03E0000        DCD              2_11000000001111100000000000000
000
 2054 00001AA4 C1AD8000        DCD              2_11000001101011011000000000000
000
 2055 00001AA8 415A0000        DCD              2_01000001010110100000000000000
000
 2056 00001AAC BE806000        DCD              2_10111110100000000110000000000
000
 2057 00001AB0 42E58000        DCD              2_01000010111001011000000000000
000
 2058 00001AB4 C16B0000        DCD              2_11000001011010110000000000000
000
 2059 00001AB8 4332C000        DCD              2_01000011001100101100000000000
000
 2060 00001ABC C26E0000        DCD              2_11000010011011100000000000000
000
 2061 00001AC0 43AFC000        DCD              2_01000011101011111100000000000
000
 2062 00001AC4 43440000        DCD              2_01000011010001000000000000000
000
 2063 00001AC8 3F71A000        DCD              2_00111111011100011010000000000
000
 2064 00001ACC C0DE0000        DCD              2_11000000110111100000000000000
000
 2065 00001AD0 C395A000        DCD              2_11000011100101011010000000000
000
 2066 00001AD4 C2D3A000        DCD              2_11000010110100111010000000000
000
 2067 00001AD8 C0EC0000        DCD              2_11000000111011000000000000000
000
 2068 00001ADC 7F800000        DCD              2_01111111100000000000000000000
000
 2069 00001AE0 434B0000        DCD              2_01000011010010110000000000000
000
 2070 00001AE4 427E4000        DCD              2_01000010011111100100000000000
000
 2071 00001AE8 C0920000        DCD              2_11000000100100100000000000000
000
 2072 00001AEC 3FB78000        DCD              2_00111111101101111000000000000
000
 2073 00001AF0 3FE88000        DCD              2_00111111111010001000000000000
000
 2074 00001AF4 BF3CA000        DCD              2_10111111001111001010000000000
000
 2075 00001AF8 BF730000        DCD              2_10111111011100110000000000000
000
 2076 00001AFC C3F40000        DCD              2_11000011111101000000000000000



ARM Macro Assembler    Page 70 


000
 2077 00001B00 41090000        DCD              2_01000001000010010000000000000
000
 2078 00001B04 C02EE000        DCD              2_11000000001011101110000000000
000
 2079 00001B08 C37C0000        DCD              2_11000011011111000000000000000
000
 2080 00001B0C 3EC9E000        DCD              2_00111110110010011110000000000
000
 2081 00001B10 C2F48000        DCD              2_11000010111101001000000000000
000
 2082 00001B14 3EE48000        DCD              2_00111110111001001000000000000
000
 2083 00001B18 C2B48000        DCD              2_11000010101101001000000000000
000
 2084 00001B1C C123E000        DCD              2_11000001001000111110000000000
000
 2085 00001B20 3F8D0000        DCD              2_00111111100011010000000000000
000
 2086 00001B24 437E8000        DCD              2_01000011011111101000000000000
000
 2087 00001B28 C4232000        DCD              2_11000100001000110010000000000
000
 2088 00001B2C 41390000        DCD              2_01000001001110010000000000000
000
 2089 00001B30 C42F8000        DCD              2_11000100001011111000000000000
000
 2090 00001B34 C0FD8000        DCD              2_11000000111111011000000000000
000
 2091 00001B38 BF830000        DCD              2_10111111100000110000000000000
000
 2092 00001B3C BEAD0000        DCD              2_10111110101011010000000000000
000
 2093 00001B40 3EC6C000        DCD              2_00111110110001101100000000000
000
 2094 00001B44 FF800180        DCD              2_11111111100000000000000110000
000
 2095 00001B48 C09E8000        DCD              2_11000000100111101000000000000
000
 2096 00001B4C 40960000        DCD              2_01000000100101100000000000000
000
 2097 00001B50 43420000        DCD              2_01000011010000100000000000000
000
 2098 00001B54 C2E86000        DCD              2_11000010111010000110000000000
000
 2099 00001B58 42BE2000        DCD              2_01000010101111100010000000000
000
 2100 00001B5C 3EC18000        DCD              2_00111110110000011000000000000
000
 2101 00001B60 C0C38000        DCD              2_11000000110000111000000000000
000
 2102 00001B64 C1034000        DCD              2_11000001000000110100000000000
000
 2103 00001B68 C3278000        DCD              2_11000011001001111000000000000
000
 2104 00001B6C BE81E000        DCD              2_10111110100000011110000000000
000
 2105 00001B70 C1EE8000        DCD              2_11000001111011101000000000000
000



ARM Macro Assembler    Page 71 


 2106 00001B74 403EC000        DCD              2_01000000001111101100000000000
000
 2107 00001B78 C32E6000        DCD              2_11000011001011100110000000000
000
 2108 00001B7C 40948000        DCD              2_01000000100101001000000000000
000
 2109 00001B80 C40C8000        DCD              2_11000100000011001000000000000
000
 2110 00001B84 C1210000        DCD              2_11000001001000010000000000000
000
 2111 00001B88 442CE000        DCD              2_01000100001011001110000000000
000
 2112 00001B8C 43108000        DCD              2_01000011000100001000000000000
000
 2113 00001B90 C2C20000        DCD              2_11000010110000100000000000000
000
 2114 00001B94 42B4C000        DCD              2_01000010101101001100000000000
000
 2115 00001B98 C1E90000        DCD              2_11000001111010010000000000000
000
 2116 00001B9C C0BE0000        DCD              2_11000000101111100000000000000
000
 2117 00001BA0 BFD8A000        DCD              2_10111111110110001010000000000
000
 2118 00001BA4 3FD78000        DCD              2_00111111110101111000000000000
000
 2119 00001BA8 3FE5E000        DCD              2_00111111111001011110000000000
000
 2120 00001BAC 3E8F8000        DCD              2_00111110100011111000000000000
000
 2121 00001BB0 43E36000        DCD              2_01000011111000110110000000000
000
 2122 00001BB4 43D44000        DCD              2_01000011110101000100000000000
000
 2123 00001BB8 C0DE4000        DCD              2_11000000110111100100000000000
000
 2124 00001BBC C2032000        DCD              2_11000010000000110010000000000
000
 2125 00001BC0 BF860000        DCD              2_10111111100001100000000000000
000
 2126 00001BC4 42C00000        DCD              2_01000010110000000000000000000
000
 2127 00001BC8 42990000        DCD              2_01000010100110010000000000000
000
 2128 00001BCC C19F0000        DCD              2_11000001100111110000000000000
000
 2129 00001BD0 C3680000        DCD              2_11000011011010000000000000000
000
 2130 00001BD4 BEE5A000        DCD              2_10111110111001011010000000000
000
 2131 00001BD8 436F8000        DCD              2_01000011011011111000000000000
000
 2132 00001BDC 3ED18000        DCD              2_00111110110100011000000000000
000
 2133 00001BE0 BE9E2000        DCD              2_10111110100111100010000000000
000
 2134 00001BE4 BF298000        DCD              2_10111111001010011000000000000
000
 2135 00001BE8 BF9D0000        DCD              2_10111111100111010000000000000



ARM Macro Assembler    Page 72 


000
 2136 00001BEC 4353C000        DCD              2_01000011010100111100000000000
000
 2137 00001BF0 3FB1C000        DCD              2_00111111101100011100000000000
000
 2138 00001BF4 BF4FE000        DCD              2_10111111010011111110000000000
000
 2139 00001BF8 BF6A6000        DCD              2_10111111011010100110000000000
000
 2140 00001BFC C10EE000        DCD              2_11000001000011101110000000000
000
 2141 00001C00 434C6000        DCD              2_01000011010011000110000000000
000
 2142 00001C04 BF6FA000        DCD              2_10111111011011111010000000000
000
 2143 00001C08 C316C000        DCD              2_11000011000101101100000000000
000
 2144 00001C0C C35DE000        DCD              2_11000011010111011110000000000
000
 2145 00001C10 3EADC000        DCD              2_00111110101011011100000000000
000
 2146 00001C14 400B0000        DCD              2_01000000000010110000000000000
000
 2147 00001C18 43F42000        DCD              2_01000011111101000010000000000
000
 2148 00001C1C 4389C000        DCD              2_01000011100010011100000000000
000
 2149 00001C20         
 2150 00001C20         ; ====Result area
 2151 00001C20                 AREA             Result, DATA
 2152 00000000         Result_data
 2153 00000000 60000000        &                0x60000000
 2154 00000004                 end
Command Line: --debug --xref --diag_suppress=9931 --cpu=ARM9E --apcs=interwork 
--depend=.\objects\project.d -o.\objects\project.o -IC:\Keil_v5\ARM\RV31\INC -I
C:\Keil_v5\ARM\CMSIS\Include --predefine="__EVAL SETA 1" --predefine="__UVISION
_VERSION SETA 524" --list=.\listings\project.lst Project.s



ARM Macro Assembler    Page 1 Alphabetic symbol ordering
Relocatable symbols

Execution 0000004C

Symbol: Execution
   Definitions
      At line 34 in file Project.s
   Uses
      At line 67 in file Project.s
      At line 71 in file Project.s
      At line 85 in file Project.s

Floating_add 000002A8

Symbol: Floating_add
   Definitions
      At line 254 in file Project.s
   Uses
      At line 249 in file Project.s
Comment: Floating_add used once
Infinite_addr_inc 0000010C

Symbol: Infinite_addr_inc
   Definitions
      At line 105 in file Project.s
   Uses
      At line 139 in file Project.s
      At line 143 in file Project.s
      At line 154 in file Project.s

Infinite_after_store 000000E4

Symbol: Infinite_after_store
   Definitions
      At line 90 in file Project.s
   Uses
      At line 148 in file Project.s
      At line 152 in file Project.s

Infinite_store 000000DC

Symbol: Infinite_store
   Definitions
      At line 87 in file Project.s
   Uses
      At line 76 in file Project.s
      At line 80 in file Project.s

M1_row_update 00000018

Symbol: M1_row_update
   Definitions
      At line 12 in file Project.s
   Uses
      At line 28 in file Project.s
Comment: M1_row_update used once
M2_col_update 0000002C

Symbol: M2_col_update
   Definitions
      At line 22 in file Project.s



ARM Macro Assembler    Page 2 Alphabetic symbol ordering
Relocatable symbols

   Uses
      At line 40 in file Project.s
      At line 52 in file Project.s
      At line 61 in file Project.s
      At line 113 in file Project.s
      At line 126 in file Project.s
      At line 134 in file Project.s

Multiply 000001A0

Symbol: Multiply
   Definitions
      At line 156 in file Project.s
   Uses
      At line 82 in file Project.s
Comment: Multiply used once
Start 00000000

Symbol: Start
   Definitions
      At line 4 in file Project.s
   Uses
      None
Comment: Start unused
booth_op 000001F8

Symbol: booth_op
   Definitions
      At line 190 in file Project.s
   Uses
      At line 236 in file Project.s
Comment: booth_op used once
booth_shift 00000254

Symbol: booth_shift
   Definitions
      At line 222 in file Project.s
   Uses
      At line 194 in file Project.s
      At line 198 in file Project.s
      At line 202 in file Project.s
      At line 206 in file Project.s
      At line 210 in file Project.s
      At line 214 in file Project.s
      At line 218 in file Project.s
      At line 221 in file Project.s

difsign 00000364

Symbol: difsign
   Definitions
      At line 321 in file Project.s
   Uses
      At line 300 in file Project.s
Comment: difsign used once
finish 000002A4

Symbol: finish
   Definitions



ARM Macro Assembler    Page 3 Alphabetic symbol ordering
Relocatable symbols

      At line 251 in file Project.s
   Uses
      At line 17 in file Project.s
Comment: finish used once
project 00000000

Symbol: project
   Definitions
      At line 1 in file Project.s
   Uses
      None
Comment: project unused
result 00000330

Symbol: result
   Definitions
      At line 302 in file Project.s
   Uses
      At line 319 in file Project.s
      At line 334 in file Project.s
      At line 343 in file Project.s

samesign 00000348

Symbol: samesign
   Definitions
      At line 311 in file Project.s
   Uses
      At line 299 in file Project.s
Comment: samesign used once
shift 0000039C

Symbol: shift
   Definitions
      At line 338 in file Project.s
   Uses
      At line 342 in file Project.s
Comment: shift used once
17 symbols



ARM Macro Assembler    Page 1 Alphabetic symbol ordering
Relocatable symbols

Matrix 00000000

Symbol: Matrix
   Definitions
      At line 346 in file Project.s
   Uses
      None
Comment: Matrix unused
Matrix_data 00000000

Symbol: Matrix_data
   Definitions
      At line 348 in file Project.s
   Uses
      At line 5 in file Project.s
Comment: Matrix_data used once
2 symbols



ARM Macro Assembler    Page 1 Alphabetic symbol ordering
Relocatable symbols

Result 00000000

Symbol: Result
   Definitions
      At line 2151 in file Project.s
   Uses
      None
Comment: Result unused
Result_data 00000000

Symbol: Result_data
   Definitions
      At line 2152 in file Project.s
   Uses
      At line 6 in file Project.s
Comment: Result_data used once
2 symbols
355 symbols in table
